(dp0
I1337659200
(lp1
Vrain
p2
aVLight rain in the morning.
p3
aF60.32
aF69.63
aF0.68
aF0.0086
asI1344139200
(lp4
Vrain
p5
aVRain in the evening.
p6
aF74.38
aF84.71
aF0.82
aF0.0116
asI1339560000
(lp7
Vrain
p8
aVLight rain in the afternoon.
p9
aF63.3
aF69.23
aF0.79
aF0.017
asI1350187200
(lp10
Vpartly-cloudy-day
p11
aVMostly cloudy until afternoon.
p12
aF52.03
aF68.78
aI0
aI0
asI1334980800
(lp13
Vrain
p14
aVRain overnight.
p15
aF55.37
aF68.49
aF0.52
aF0.0005
asI1347508800
(lp16
Vclear-day
p17
aVClear throughout the day.
p18
aF63.87
aF74.9
aI0
aI0
asI1341460800
(lp19
Vclear-day
p20
aVClear throughout the day.
p21
aF76.65
aF92.57
aI0
aI0
asI1358830800
(lp22
Vpartly-cloudy-day
p23
aVPartly cloudy until afternoon.
p24
aF16.94
aF29.17
aF0.27
aF0.0003
asI1353301200
(lp25
Vpartly-cloudy-night
p26
aVPartly cloudy throughout the day.
p27
aF39.89
aF49.14
aI0
aI0
asI1336881600
(lp28
Vcloudy
p29
aVOvercast overnight.
p30
aF59.39
aF78.11
aI0
aI0
asI1343361600
(lp31
Vpartly-cloudy-day
p32
aVPartly cloudy throughout the day.
p33
aF72.03
aF85.91
aI0
aI0
asI1350273600
(lp34
Vrain
p35
aVLight rain in the evening.
p36
aF61.97
aF70.51
aF0.66
aF0.0037
asI1338782400
(lp37
Vrain
p38
aVLight rain until afternoon.
p39
aF54.22
aF64.16
aF0.7
aF0.0046
asI1353560400
(lp40
Vpartly-cloudy-day
p41
aVPartly cloudy in the morning.
p42
aF42.32
aF53.39
aI0
aI0
asI1354597200
(lp43
Vrain
p44
aVLight rain in the morning.
p45
aF44.36
aF55.37
aF0.69
aF0.0037
asI1347595200
(lp46
Vpartly-cloudy-night
p47
aVPartly cloudy overnight.
p48
aF61.04
aF75.05
aI0
aI0
asI1334203200
(lp49
Vpartly-cloudy-day
p50
aVMostly cloudy throughout the day.
p51
aF43.55
aF58.13
aI0
aI0
asI1358571600
(lp52
Vwind
p53
aVBreezy and partly cloudy until afternoon.
p54
aF25.94
aF48.33
aI0
aI0
asI1340683200
(lp55
Vwind
p56
aVMostly cloudy throughout the day and breezy in the afternoon.
p57
aF59.01
aF72.7
aI0
aI0
asI1356238800
(lp58
Vpartly-cloudy-day
p59
aVPartly cloudy until evening.
p60
aF36.18
aF41.35
aI0
aI0
asI1336104000
(lp61
Vrain
p62
aVRain in the morning.
p63
aF52.57
aF71.01
aF0.73
aF0.0049
asI1350446400
(lp64
Vclear-day
p65
aVClear throughout the day.
p66
aF46.15
aF59.16
aI0
aI0
asI1350360000
(lp67
Vrain
p68
aVLight rain in the morning.
p69
aI52
aF61.81
aF0.64
aF0.002
asI1342584000
(lp70
Vrain
p71
aVHeavy rain starting in the afternoon, continuing until evening.
p72
aF74.91
aF96.24
aF0.9
aF0.0443
asI1353646800
(lp73
Vpartly-cloudy-night
p74
aVPartly cloudy throughout the day.
p75
aF40.63
aF52.1
aF0.42
aF0.0005
asI1349928000
(lp76
Vpartly-cloudy-night
p77
aVPartly cloudy overnight.
p78
aF49.93
aF58.7
aI0
aI0
asI1338004800
(lp79
Vpartly-cloudy-day
p80
aVMostly cloudy in the evening.
p81
aF63.51
aF82.78
aF0.56
aF0.0007
asI1355202000
(lp82
Vrain
p83
aVLight rain in the morning.
p84
aF41.24
aF55.74
aF0.54
aF0.0021
asI1344484800
(lp85
Vpartly-cloudy-day
p86
aVPartly cloudy until afternoon.
p87
aF70.56
aF81.53
aI0
aI0
asI1359090000
(lp88
Vsnow
p89
aVLight snow (under 1 in.) in the evening.
p90
aF14.29
aF24.1
aF0.49
aF0.0013
asI1339905600
(lp91
Vpartly-cloudy-day
p92
aVMostly cloudy until evening.
p93
aF60.63
aF68.62
aI0
aI0
asI1356411600
(lp94
Vrain
p95
aVLight rain until afternoon.
p96
aF35.02
aF41.84
aF0.68
aF0.0039
asI1335326400
(lp97
Vpartly-cloudy-day
p98
aVMostly cloudy until evening.
p99
aF44.88
aF59.61
aI0
aI0
asI1353733200
(lp100
Vwind
p101
aVPartly cloudy throughout the day and breezy starting in the evening.
p102
aF36.9
aF49.53
aI0
aI0
asI1336795200
(lp103
Vclear-day
p104
aVClear throughout the day.
p105
aF50.35
aF76.68
aI0
aI0
asI1337227200
(lp106
Vpartly-cloudy-night
p107
aVPartly cloudy in the morning.
p108
aF54.65
aF71.44
aI0
aI0
asI1359176400
(lp109
Vpartly-cloudy-day
p110
aVPartly cloudy until afternoon.
p111
aF19.13
aF26.99
aI0
aI0
asI1343707200
(lp112
Vpartly-cloudy-day
p113
aVMostly cloudy throughout the day.
p114
aF71.12
aF78.6
aI0
aI0
asI1346817600
(lp115
Vrain
p116
aVRain until afternoon, starting again in the evening.
p117
aF72.14
aF79.02
aF0.81
aF0.0238
asI1339128000
(lp118
Vpartly-cloudy-day
p119
aVPartly cloudy starting in the afternoon.
p120
aF58.02
aF80.55
aI0
aI0
asI1353819600
(lp121
Vwind
p122
aVBreezy in the morning and partly cloudy starting in the afternoon.
p123
aF35.01
aF40.39
aI0
aI0
asI1334548800
(lp124
Vclear-day
p125
aVClear throughout the day.
p126
aI61
aF82.63
aI0
aI0
asI1357102800
(lp127
Vpartly-cloudy-night
p128
aVPartly cloudy starting in the afternoon, continuing until evening.
p129
aF22.63
aF31.88
aI0
aI0
asI1341028800
(lp130
Vclear-day
p131
aVClear throughout the day.
p132
aF73.85
aF92.07
aI0
aI0
asI1345780800
(lp133
Vpartly-cloudy-night
p134
aVPartly cloudy starting in the evening.
p135
aF69.69
aF81.2
aI0
aI0
asI1336449600
(lp136
Vrain
p137
aVBreezy starting in the afternoon, continuing until evening, and light rain overnight.
p138
aF53.69
aF64.43
aF0.56
aF0.001
asI1356584400
(lp139
Vrain
p140
aVRain until afternoon, starting again in the evening, and breezy starting in the evening.
p141
aF31.4
aF43.73
aF0.8
aF0.0259
asI1342929600
(lp142
Vpartly-cloudy-night
p143
aVPartly cloudy in the morning.
p144
aF63.15
aF80.6
aI0
aI0
asI1350619200
(lp145
Vrain
p146
aVRain in the morning and afternoon.
p147
aF61.3
aF66.27
aF0.82
aF0.0212
asI1353906000
(lp148
Vpartly-cloudy-night
p149
aVPartly cloudy overnight.
p150
aF37.57
aF47.74
aI0
aI0
asI1338350400
(lp151
Vpartly-cloudy-day
p152
aVMostly cloudy until afternoon.
p153
aF66.85
aF75.45
aF0.48
aF0.0005
asI1347940800
(lp154
Vrain
p155
aVHeavy rain in the morning and evening and breezy starting in the afternoon, continuing until evening.
p156
aF66.93
aF74.81
aF0.91
aF0.0536
asI1357016400
(lp157
Vpartly-cloudy-night
p158
aVPartly cloudy in the morning.
p159
aF22.74
aF39.89
aI0
aI0
asI1344830400
(lp160
Vpartly-cloudy-night
p161
aVPartly cloudy in the morning.
p162
aF70.55
aF81.75
aI0
aI0
asI1345262400
(lp163
Vrain
p164
aVRain in the morning and afternoon.
p165
aF65.48
aF77.52
aF0.8
aF0.0237
asI1359349200
(lp166
Vsnow
p167
aVMixed precipitation in the morning and afternoon.
p168
aF27.04
aF35.78
aF0.62
aF0.0051
asI1340251200
(lp169
Vclear-day
p170
aVClear throughout the day.
p171
aF76.42
aF93.16
aI0
aI0
asI1356670800
(lp172
Vpartly-cloudy-night
p173
aVMostly cloudy in the morning.
p174
aF31.12
aF37.29
aI0
aI0
asI1335672000
(lp175
Vclear-day
p176
aVClear throughout the day.
p177
aF44.88
aF61.86
aI0
aI0
asI1350705600
(lp178
Vrain
p179
aVLight rain in the morning.
p180
aF58.49
aF67.08
aF0.61
aF0.0023
asI1353992400
(lp181
Vrain
p182
aVRain throughout the day.
p183
aF35.15
aF40.72
aF0.73
aF0.0183
asI1342152000
(lp184
Vpartly-cloudy-night
p185
aVMostly cloudy starting in the evening.
p186
aF69.99
aF84.85
aI0
aI0
asI1348027200
(lp187
Vrain
p188
aVHeavy rain in the morning.
p189
aF61.66
aF70.3
aF0.85
aF0.0118
asI1357362000
(lp190
Vpartly-cloudy-night
p191
aVPartly cloudy in the morning.
p192
aF32.41
aF42.28
aI0
aI0
asI1337572800
(lp193
Vrain
p194
aVRain until afternoon, starting again overnight.
p195
aF57.82
aF63.53
aF0.84
aF0.0387
asI1359262800
(lp196
Vclear-day
p197
aVClear throughout the day.
p198
aF19.24
aF32.43
aI0
aI0
asI1344052800
(lp199
Vpartly-cloudy-day
p200
aVPartly cloudy throughout the day.
p201
aF74.75
aF83.53
aI0
aI0
asI1358053200
(lp202
Vfog
p203
aVFoggy until afternoon.
p204
aF43.99
aF47.57
aF0.16
aF0.0002
asI1350532800
(lp205
Vrain
p206
aVLight rain overnight.
p207
aF48.38
aF63.14
aI0
aI0
asI1339473600
(lp208
Vrain
p209
aVRain starting in the afternoon.
p210
aF64.83
aF70.65
aF0.81
aF0.0277
asI1350792000
(lp211
Vclear-day
p212
aVClear throughout the day.
p213
aF51.71
aF63.6
aI0
aI0
asI1354078800
(lp214
Vpartly-cloudy-day
p215
aVMostly cloudy until evening.
p216
aF35.97
aF41.46
aF0.57
aF0.0028
asI1345953600
(lp217
Vpartly-cloudy-night
p218
aVPartly cloudy in the evening.
p219
aF66.68
aF77.21
aI0
aI0
asI1335844800
(lp220
Vrain
p221
aVHeavy rain in the morning.
p222
aF51.77
aI68
aF0.84
aF0.0184
asI1348113600
(lp223
Vpartly-cloudy-night
p224
aVPartly cloudy starting in the afternoon.
p225
aF57.47
aF66.62
aI0
aI0
asI1360645200
(lp226
Vpartly-cloudy-night
p227
aVPartly cloudy in the evening.
p228
aF35.63
aF43.67
aF0.27
aF0.0003
asI1341374400
(lp229
Vrain
p230
aVLight rain in the morning.
p231
aF72.24
aF91.66
aF0.68
aF0.0023
asI1355288400
(lp232
Vclear-day
p233
aVClear throughout the day.
p234
aF36.32
aF41.46
aI0
aI0
asI1345435200
(lp235
Vpartly-cloudy-day
p236
aVPartly cloudy throughout the day.
p237
aF66.94
aF73.74
aI0
aI0
asI1359522000
(lp238
Vrain
p239
aVRain in the evening and overnight and breezy overnight.
p240
aF42.07
aF55.05
aF0.65
aF0.0035
asI1347854400
(lp241
Vpartly-cloudy-night
p242
aVPartly cloudy overnight.
p243
aF55.92
aF73.51
aI0
aI0
asI1356843600
(lp244
Vwind
p245
aVMostly cloudy throughout the day and windy until evening.
p246
aF31.12
aF39.04
aF0.64
aF0.0018
asI1343275200
(lp247
Vrain
p248
aVHeavy rain in the morning and evening.
p249
aF72.13
aF88.85
aF0.86
aF0.0229
asI1350878400
(lp250
Vclear-day
p251
aVClear throughout the day.
p252
aF53.59
aF66.07
aI0
aI0
asI1354165200
(lp253
Vclear-day
p254
aVClear throughout the day.
p255
aF34.62
aF43.26
aI0
aI0
asI1338696000
(lp256
Vrain
p257
aVRain in the evening.
p258
aF58.36
aF75.75
aF0.72
aF0.0057
asI1354251600
(lp259
Vpartly-cloudy-night
p260
aVMostly cloudy throughout the day.
p261
aF36.43
aF42.94
aI0
aI0
asI1348200000
(lp262
Vpartly-cloudy-day
p263
aVMostly cloudy throughout the day.
p264
aF58.54
aF68.1
aI0
aI0
asI1345176000
(lp265
Vrain
p266
aVRain in the evening and overnight.
p267
aF71.09
aF84.59
aF0.73
aF0.003
asI1345521600
(lp268
Vpartly-cloudy-night
p269
aVPartly cloudy in the evening.
p270
aF66.79
aF78.67
aI0
aI0
asI1359608400
(lp271
Vrain
p272
aVHeavy rain in the morning and windy throughout the day.
p273
aF33.07
aF58.74
aF0.88
aF0.0358
asI1340596800
(lp274
Vrain
p275
aVRain in the morning and afternoon.
p276
aF65.11
aF72.32
aF0.79
aF0.0195
asI1356930000
(lp277
Vpartly-cloudy-day
p278
aVPartly cloudy until afternoon.
p279
aF28.4
aF39.89
aI0
aI0
asI1336017600
(lp280
Vcloudy
p281
aVOvercast throughout the day.
p282
aF49.97
aF57.03
aF0.85
aF0.0128
asI1350964800
(lp283
Vrain
p284
aVLight rain overnight.
p285
aI55
aF62.59
aF0.57
aF0.0008
asI1342497600
(lp286
Vpartly-cloudy-day
p287
aVPartly cloudy in the afternoon.
p288
aF74.45
aF93.87
aI0
aI0
asI1348286400
(lp289
Vrain
p290
aVRain overnight.
p291
aF62.42
aF72.11
aF0.82
aF0.008
asI1337918400
(lp292
Vfog
p293
aVFoggy in the morning.
p294
aF60.72
aF71.86
aI0
aI0
asI1345608000
(lp295
Vpartly-cloudy-day
p296
aVPartly cloudy starting in the afternoon, continuing until evening.
p297
aF67.52
aF78.98
aF0.21
aF0.0004
asI1344398400
(lp298
Vclear-day
p299
aVClear throughout the day.
p300
aF70.67
aF80.11
aI0
aI0
asI1345867200
(lp301
Vpartly-cloudy-day
p302
aVPartly cloudy in the evening.
p303
aF69.33
aF79.63
aF0.27
aF0.0003
asI1339819200
(lp304
Vpartly-cloudy-night
p305
aVMostly cloudy overnight.
p306
aF60.67
aF77.43
aI0
aI0
asI1335240000
(lp307
Vwind
p308
aVMostly cloudy throughout the day and breezy until afternoon.
p309
aF42.01
aF58.4
aI0
aI0
asI1341720000
(lp310
Vpartly-cloudy-night
p311
aVPartly cloudy starting in the afternoon.
p312
aF74.3
aF88.13
aF0.84
aF0.0172
asI1359003600
(lp313
Vwind
p314
aVPartly cloudy in the morning and breezy starting in the evening.
p315
aF12.5
aF23.24
aI0
aI0
asI1345694400
(lp316
Vpartly-cloudy-day
p317
aVPartly cloudy starting in the afternoon, continuing until evening.
p318
aF67.84
aF79.49
aI0
aI0
asI1337140800
(lp319
Vrain
p320
aVLight rain in the morning.
p321
aF61.11
aF75.87
aF0.72
aF0.0042
asI1343620800
(lp322
Vpartly-cloudy-day
p323
aVMostly cloudy throughout the day.
p324
aF68.38
aF78.21
aI0
aI0
asI1351137600
(lp325
Vpartly-cloudy-day
p326
aVPartly cloudy throughout the day.
p327
aF52.27
aF61.47
aI0
aI0
asI1334289600
(lp328
Vclear-day
p329
aVClear throughout the day.
p330
aF44.65
aF62.64
aI0
aI0
asI1354424400
(lp331
Vrain
p332
aVLight rain starting in the evening.
p333
aF41.18
aF50.49
aF0.66
aF0.002
asI1357966800
(lp334
Vrain
p335
aVDrizzle until afternoon.
p336
aF41.86
aF45.81
aF0.71
aF0.0041
asI1348459200
(lp337
Vpartly-cloudy-night
p338
aVPartly cloudy overnight.
p339
aF55.22
aF65.43
aI0
aI0
asI1334462400
(lp340
Vpartly-cloudy-day
p341
aVMostly cloudy until evening.
p342
aF60.22
aF75.58
aI0
aI0
asI1340942400
(lp343
Vrain
p344
aVRain in the morning.
p345
aF71.39
aF92.8
aF0.83
aF0.0131
asI1357448400
(lp346
Vpartly-cloudy-day
p347
aVMostly cloudy until afternoon.
p348
aF32.14
aF44.45
aI0
aI0
asI1336363200
(lp349
Vpartly-cloudy-day
p350
aVMostly cloudy throughout the day.
p351
aF53.19
aF62.24
aF0.27
aF0.0003
asI1357189200
(lp352
Vpartly-cloudy-night
p353
aVMostly cloudy starting in the evening.
p354
aF22.59
aF33.82
aI0
aI0
asI1352523600
(lp355
Vpartly-cloudy-day
p356
aVPartly cloudy until evening.
p357
aF43.01
aF52.97
aI0
aI0
asI1351224000
(lp358
Vpartly-cloudy-day
p359
aVPartly cloudy throughout the day.
p360
aF52.55
aF62.84
aI0
aI0
asI1342843200
(lp361
Vpartly-cloudy-day
p362
aVMostly cloudy throughout the day.
p363
aF62.3
aF74.95
aI0
aI0
asI1354510800
(lp364
Vpartly-cloudy-night
p365
aVMostly cloudy in the morning.
p366
aF46.58
aF58.5
aI0
aI0
asI1338264000
(lp367
Vrain
p368
aVRain starting in the evening.
p369
aF68.16
aF87.17
aF0.8
aF0.0105
asI1356498000
(lp370
Vrain
p371
aVRain starting in the afternoon and breezy starting in the evening.
p372
aF31.68
aF39.8
aF0.79
aF0.0201
asI1344744000
(lp373
Vrain
p374
aVHeavy rain in the morning.
p375
aF73.67
aF80.98
aF0.85
aF0.013
asI1359954000
(lp376
Vpartly-cloudy-night
p377
aVMostly cloudy starting in the afternoon.
p378
aF25.45
aF30.05
aI0
aI0
asI1349582400
(lp379
Vrain
p380
aVRain starting in the afternoon.
p381
aF50.04
aF58.22
aF0.72
aF0.0086
asI1340164800
(lp382
Vpartly-cloudy-day
p383
aVPartly cloudy in the afternoon.
p384
aF67.72
aF92.98
aI0
aI0
asI1357275600
(lp385
Vpartly-cloudy-day
p386
aVPartly cloudy until afternoon.
p387
aF30.26
aF37.53
aI0
aI0
asI1335585600
(lp388
Vclear-day
p389
aVClear throughout the day.
p390
aF39.9
aF58.54
aI0
aI0
asI1352091600
(lp391
Vrain
p392
aVLight rain in the afternoon.
p393
aF37.94
aF44.6
aF0.57
aF0.0015
asI1359435600
(lp394
Vrain
p395
aVRain in the evening.
p396
aF36.04
aF43.09
aF0.74
aF0.0045
asI1342065600
(lp397
Vpartly-cloudy-day
p398
aVPartly cloudy in the morning.
p399
aF66.66
aF85.56
aI0
aI0
asI1348545600
(lp400
Vpartly-cloudy-night
p401
aVPartly cloudy overnight.
p402
aF51.57
aF70.87
aI0
aI0
asI1337486400
(lp403
Vpartly-cloudy-night
p404
aVMostly cloudy starting in the evening.
p405
aF55.53
aF75.33
aI0
aI0
asI1360040400
(lp406
Vsnow
p407
aVLight snow overnight.
p408
aF27.65
aF33.18
aF0.49
aF0.0011
asI1343966400
(lp409
Vpartly-cloudy-day
p410
aVMostly cloudy throughout the day.
p411
aF73.55
aF83.75
aI0
aI0
asI1353474000
(lp412
Vpartly-cloudy-day
p413
aVPartly cloudy until evening.
p414
aF42.39
aF52.88
aI0
aI0
asI1356066000
(lp415
Vrain
p416
aVRain in the morning and afternoon and breezy in the morning.
p417
aF38.01
aF56.15
aF0.83
aF0.034
asI1339387200
(lp418
Vpartly-cloudy-night
p419
aVMostly cloudy starting in the afternoon.
p420
aF61.93
aF75.2
aI0
aI0
asI1354683600
(lp421
Vwind
p422
aVMostly cloudy throughout the day and breezy in the evening.
p423
aF37.45
aF56.4
aF0.27
aF0.0004
asI1334808000
(lp424
Vcloudy
p425
aVOvercast in the morning.
p426
aF48.76
aF65.94
aF0.63
aF0.0024
asI1341288000
(lp427
Vpartly-cloudy-day
p428
aVPartly cloudy starting in the afternoon, continuing until evening.
p429
aF68.75
aF87.41
aI0
aI0
asI1346040000
(lp430
Vrain
p431
aVHeavy rain in the afternoon.
p432
aF66.87
aF79.6
aF0.88
aF0.0171
asI1336708800
(lp433
Vpartly-cloudy-day
p434
aVPartly cloudy in the afternoon.
p435
aF50.69
aF68.76
aI0
aI0
asI1347681600
(lp436
Vrain
p437
aVLight rain in the morning.
p438
aF63.06
aF71.49
aF0.48
aF0.0006
asI1358917200
(lp439
Vpartly-cloudy-day
p440
aVPartly cloudy until evening.
p441
aF12.39
aF18.65
aI0
aI0
asI1343188800
(lp442
Vclear-day
p443
aVClear throughout the day.
p444
aF68.67
aF83.77
aI0
aI0
asI1360126800
(lp445
Vpartly-cloudy-day
p446
aVMostly cloudy until afternoon.
p447
aF31.02
aF37.92
aF0.16
aF0.0004
asI1354770000
(lp448
Vpartly-cloudy-day
p449
aVPartly cloudy until afternoon.
p450
aF32.3
aF39.26
aI0
aI0
asI1338609600
(lp451
Vrain
p452
aVLight rain in the morning.
p453
aF64.3
aF74.01
aF0.83
aF0.02
asI1348804800
(lp454
Vrain
p455
aVRain in the morning and evening.
p456
aF61.16
aF68.69
aF0.9
aF0.0656
asI1345089600
(lp457
Vpartly-cloudy-day
p458
aVPartly cloudy in the morning.
p459
aF68.67
aF81.1
aF0.27
aF0.0003
asI1346126400
(lp460
Vrain
p461
aVRain in the morning.
p462
aF73.99
aF83.11
aF0.79
aF0.0074
asI1360213200
(lp463
Vpartly-cloudy-day
p464
aVPartly cloudy in the afternoon.
p465
aF26.68
aF33.56
aI0
aI0
asI1340510400
(lp466
Vpartly-cloudy-night
p467
aVMostly cloudy overnight.
p468
aF66.5
aF80.74
aI0
aI0
asI1357534800
(lp469
Vclear-day
p470
aVClear throughout the day.
p471
aF34.02
aF43.1
aI0
aI0
asI1335931200
(lp472
Vrain
p473
aVHeavy rain in the morning and overnight.
p474
aF50.2
aF56.44
aF0.54
aF0.0021
asI1351569600
(lp475
Vrain
p476
aVRain until afternoon and breezy in the morning.
p477
aF52.27
aF59.54
aF0.71
aF0.0096
asI1354856400
(lp478
Vrain
p479
aVLight rain starting in the afternoon.
p480
aF33.22
aF45.98
aF0.56
aF0.0047
asI1342411200
(lp481
Vpartly-cloudy-day
p482
aVPartly cloudy starting in the afternoon, continuing until evening.
p483
aF71.52
aF89.11
aF0.27
aF0.0003
asI1348891200
(lp484
Vrain
p485
aVRain in the morning and overnight.
p486
aF58.61
aF63.8
aF0.8
aF0.0188
asI1337832000
(lp487
Vrain
p488
aVRain until afternoon, starting again in the evening.
p489
aF58.51
aF67.27
aF0.78
aF0.0174
asI1346212800
(lp490
Vpartly-cloudy-night
p491
aVPartly cloudy in the morning.
p492
aF67.37
aF75.94
aI0
aI0
asI1360299600
(lp493
Vrain
p494
aVMixed precipitation (3\u20136 in. of snow) throughout the day and windy starting in the afternoon.
p495
aF28.57
aF35.53
aF0.81
aF0.0354
asI1344312000
(lp496
Vclear-day
p497
aVClear throughout the day.
p498
aF68.78
aF78.42
aI0
aI0
asI1359867600
(lp499
Vpartly-cloudy-day
p500
aVMostly cloudy throughout the day.
p501
aF25.7
aF30.78
aF0.18
aF0.0005
asI1357621200
(lp502
Vpartly-cloudy-day
p503
aVMostly cloudy in the morning.
p504
aF35.56
aF46.77
aI0
aI0
asI1339732800
(lp505
Vpartly-cloudy-day
p506
aVMostly cloudy in the morning.
p507
aF62.32
aF77.53
aI0
aI0
asI1351656000
(lp508
Vpartly-cloudy-day
p509
aVMostly cloudy throughout the day.
p510
aF46.45
aF54.89
aF0.57
aF0.0013
asI1354942800
(lp511
Vrain
p512
aVRain in the morning and overnight.
p513
aF44.18
aF51.29
aF0.75
aF0.0149
asI1335153600
(lp514
Vrain
p515
aVLight rain in the morning.
p516
aF46.91
aF53.4
aF0.88
aF0.0267
asI1348977600
(lp517
Vrain
p518
aVRain in the morning and afternoon.
p519
aF57.05
aF64.74
aF0.71
aF0.0127
asI1352264400
(lp520
Vrain
p521
aVRain and windy throughout the day.
p522
aF33.08
aF44.51
aF0.81
aF0.0344
asI1341633600
(lp523
Vrain
p524
aVRain overnight.
p525
aF75.76
aF93.88
aI0
aI0
asI1346299200
(lp526
Vclear-day
p527
aVClear throughout the day.
p528
aF63.42
aF78.72
aI0
aI0
asI1337054400
(lp529
Vrain
p530
aVRain in the afternoon and overnight.
p531
aF59.07
aF64.36
aF0.75
aF0.0096
asI1349668800
(lp532
Vrain
p533
aVLight rain overnight.
p534
aF47.13
aF54.89
aF0.57
aF0.0016
asI1357707600
(lp535
Vpartly-cloudy-day
p536
aVMostly cloudy until evening.
p537
aF34.52
aF47.16
aI0
aI0
asI1343534400
(lp538
Vpartly-cloudy-day
p539
aVMostly cloudy throughout the day.
p540
aF69.59
aF78.25
aF0.64
aF0.0013
asI1351742400
(lp541
Vpartly-cloudy-day
p542
aVMostly cloudy throughout the day.
p543
aF47.43
aF54.14
aI0
aI0
asI1355029200
(lp544
Vrain
p545
aVRain starting in the evening.
p546
aF42.91
aF48.8
aF0.63
aF0.0053
asI1338955200
(lp547
Vpartly-cloudy-day
p548
aVMostly cloudy throughout the day.
p549
aF55.59
aF69.6
aF0.27
aF0.0003
asI1349064000
(lp550
Vwind
p551
aVBreezy in the afternoon.
p552
aF56.6
aF68.48
aI0
aI0
asI1334376000
(lp553
Vpartly-cloudy-night
p554
aVMostly cloudy starting in the evening.
p555
aF49.43
aF68.26
aI0
aI0
asI1348632000
(lp556
Vpartly-cloudy-day
p557
aVMostly cloudy throughout the day.
p558
aF64.27
aF73.49
aF0.27
aF0.0006
asI1346385600
(lp559
Vclear-day
p560
aVClear throughout the day.
p561
aF69.58
aF83.92
aI0
aI0
asI1360472400
(lp562
Vpartly-cloudy-night
p563
aVPartly cloudy overnight.
p564
aF19.63
aF36.93
aI0
aI0
asI1340856000
(lp565
Vclear-day
p566
aVClear throughout the day.
p567
aF67.68
aF87.15
aI0
aI0
asI1357794000
(lp568
Vclear-day
p569
aVClear throughout the day.
p570
aF39.96
aF46.51
aI0
aI0
asI1334894400
(lp571
Vpartly-cloudy-day
p572
aVMostly cloudy starting in the afternoon.
p573
aF53.48
aF66.77
aI0
aI0
asI1351828800
(lp574
Vpartly-cloudy-day
p575
aVMostly cloudy throughout the day.
p576
aF46.25
aF52.6
aF0.27
aF0.0003
asI1353387600
(lp577
Vpartly-cloudy-day
p578
aVMostly cloudy throughout the day.
p579
aF41.57
aF49.33
aI0
aI0
asI1342756800
(lp580
Vrain
p581
aVRain in the morning and afternoon.
p582
aF63.23
aF72.97
aF0.78
aF0.0152
asI1349150400
(lp583
Vrain
p584
aVRain starting in the afternoon.
p585
aF62.68
aF68.95
aF0.76
aF0.0169
asI1338177600
(lp586
Vclear-day
p587
aVClear throughout the day.
p588
aF67.84
aF85.51
aF0.04
aF0.0001
asI1346472000
(lp589
Vpartly-cloudy-night
p590
aVMostly cloudy starting in the evening.
p591
aF71.12
aF81.84
aI0
aI0
asI1344657600
(lp592
Vrain
p593
aVDrizzle in the morning.
p594
aF74.5
aF82.31
aF0.27
aF0.0008
asI1352350800
(lp595
Vrain
p596
aVRain in the morning and overnight and breezy starting in the afternoon.
p597
aF32.88
aF50.25
aF0.83
aF0.0289
asI1340078400
(lp598
Vpartly-cloudy-day
p599
aVMostly cloudy until evening.
p600
aF63.23
aF75.68
aI0
aI0
asI1351915200
(lp601
Vpartly-cloudy-day
p602
aVPartly cloudy until evening.
p603
aF43.94
aF51.08
aI0
aI0
asI1360731600
(lp604
Vrain
p605
aVLight rain overnight.
p606
aF32.67
aF39.95
aF0.43
aF0.0005
asI1335499200
(lp607
Vwind
p608
aVMostly cloudy in the morning and breezy until evening.
p609
aF43.51
aI56
aF0.63
aF0.0024
asI1349236800
(lp610
Vfog
p611
aVFoggy throughout the day.
p612
aF63.65
aF70.81
aF0.7
aF0.0043
asI1341979200
(lp613
Vpartly-cloudy-day
p614
aVMostly cloudy until afternoon.
p615
aF70.16
aF82.64
aI0
aI0
asI1359694800
(lp616
Vpartly-cloudy-day
p617
aVMostly cloudy until evening.
p618
aF26.02
aF32.05
aI0
aI0
asI1346558400
(lp619
Vpartly-cloudy-day
p620
aVMostly cloudy throughout the day.
p621
aF68.89
aF78.52
aI0
aI0
asI1337400000
(lp622
Vclear-day
p623
aVClear throughout the day.
p624
aF52.28
aF76.43
aI0
aI0
asI1343880000
(lp625
Vpartly-cloudy-day
p626
aVPartly cloudy throughout the day.
p627
aF70.77
aF85.22
aF0.27
aF0.0005
asI1352001600
(lp628
Vpartly-cloudy-night
p629
aVMostly cloudy starting in the afternoon.
p630
aF41.79
aF51.08
aI0
aI0
asI1339300800
(lp631
Vpartly-cloudy-day
p632
aVMostly cloudy in the morning.
p633
aF64.18
aF80.67
aF0.29
aF0.0003
asI1349323200
(lp634
Vpartly-cloudy-day
p635
aVMostly cloudy throughout the day.
p636
aF65.85
aF73.26
aF0.27
aF0.0003
asI1334721600
(lp637
Vrain
p638
aVLight rain overnight.
p639
aF49.51
aF63.33
aI0
aI0
asI1352610000
(lp640
Vpartly-cloudy-day
p641
aVMostly cloudy in the morning.
p642
aF42.59
aF59.19
aI0
aI0
asI1346644800
(lp643
Vpartly-cloudy-day
p644
aVPartly cloudy throughout the day.
p645
aF66.92
aF74.61
aI0
aI0
asI1341201600
(lp646
Vpartly-cloudy-day
p647
aVPartly cloudy in the afternoon.
p648
aF71.95
aF85.66
aI0
aI0
asI1358139600
(lp649
Vrain
p650
aVLight rain overnight.
p651
aF42.92
aF53.95
aF0.66
aF0.0022
asI1336622400
(lp652
Vrain
p653
aVLight rain in the morning and breezy starting in the afternoon, continuing until evening.
p654
aF54.13
aF62.46
aF0.73
aF0.0086
asI1343102400
(lp655
Vpartly-cloudy-day
p656
aVPartly cloudy starting in the afternoon.
p657
aF73.26
aF90.68
aI0
aI0
asI1355374800
(lp658
Vpartly-cloudy-day
p659
aVPartly cloudy until afternoon.
p660
aF36.11
aF45.15
aI0
aI0
asI1349409600
(lp661
Vpartly-cloudy-day
p662
aVPartly cloudy in the morning.
p663
aF62.74
aF73.1
aI0
aI0
asI1338523200
(lp664
Vrain
p665
aVBreezy in the evening and rain overnight.
p666
aF59.8
aF71.96
aI0
aI0
asI1352696400
(lp667
Vrain
p668
aVLight rain overnight.
p669
aF47.91
aF62.48
aI0
aI0
asI1345003200
(lp670
Vrain
p671
aVRain starting in the afternoon.
p672
aF70.29
aF78.09
aF0.81
aF0.0166
asI1356325200
(lp673
Vrain
p674
aVLight rain starting in the evening.
p675
aF33.02
aI39
aF0.59
aF0.0024
asI1340424000
(lp676
Vpartly-cloudy-night
p677
aVMostly cloudy in the morning.
p678
aF70.97
aF82.87
aF0.6
aF0.0014
asI1337313600
(lp679
Vclear-day
p680
aVClear throughout the day.
p681
aF52.6
aF68.37
aI0
aI0
asI1355547600
(lp682
Vpartly-cloudy-night
p683
aVPartly cloudy starting in the evening.
p684
aF38.53
aF45.47
aI0
aI0
asI1346904000
(lp685
Vclear-day
p686
aVClear throughout the day.
p687
aF67.89
aF75.46
aI0
aI0
asI1355461200
(lp688
Vpartly-cloudy-day
p689
aVPartly cloudy until afternoon.
p690
aF33.84
aF47.85
aI0
aI0
asI1342324800
(lp691
Vrain
p692
aVRain in the morning and evening.
p693
aF73.98
aF85.55
aF0.84
aF0.0117
asI1352782800
(lp694
Vrain
p695
aVRain starting in the afternoon.
p696
aF43.62
aF60.17
aF0.73
aF0.0117
asI1359781200
(lp697
Vsnow
p698
aVLight snow (under 1 in.) overnight.
p699
aF21.3
aF30.76
aF0.49
aF0.0006
asI1337745600
(lp700
Vrain
p701
aVLight rain in the morning.
p702
aF59.94
aF72.42
aF0.61
aF0.002
asI1360904400
(lp703
Vrain
p704
aVLight rain overnight.
p705
aF35.56
aF48.76
aI0
aI0
asI1344225600
(lp706
Vrain
p707
aVRain in the morning.
p708
aF73.99
aF83.97
aF0.8
aF0.015
asI1358226000
(lp709
Vrain
p710
aVLight rain in the morning and overnight.
p711
aF37.66
aF41.67
aF0.68
aF0.0061
asI1339646400
(lp712
Vpartly-cloudy-day
p713
aVMostly cloudy until afternoon.
p714
aF60.52
aI75
aI0
aI0
asI1351483200
(lp715
Vrain
p716
aVWindy throughout the day and heavy rain in the morning and afternoon.
p717
aI55
aF62.34
aF0.91
aF0.0526
asI1335067200
(lp718
Vrain
p719
aVHeavy rain starting in the afternoon and breezy starting in the evening.
p720
aF47.54
aF57.38
aF0.86
aF0.0696
asI1360558800
(lp721
Vrain
p722
aVRain until evening, starting again overnight.
p723
aF30.21
aF43.4
aF0.82
aF0.0247
asI1352869200
(lp724
Vpartly-cloudy-day
p725
aVMostly cloudy throughout the day.
p726
aF41.56
aF47.2
aF0.61
aF0.0023
asI1341547200
(lp727
Vclear-day
p728
aVClear throughout the day.
p729
aF72.42
aF88.27
aI0
aI0
asI1336968000
(lp730
Vpartly-cloudy-day
p731
aVMostly cloudy throughout the day.
p732
aF60.7
aF70.12
aF0.32
aF0.0005
asI1358312400
(lp733
Vrain
p734
aVRain until afternoon.
p735
aF36.63
aF39.4
aF0.79
aF0.0234
asI1352437200
(lp736
Vpartly-cloudy-day
p737
aVPartly cloudy until afternoon.
p738
aF39.94
aF51.94
aF0.27
aF0.0003
asI1343448000
(lp739
Vrain
p740
aVRain starting in the afternoon, continuing until evening.
p741
aF69.71
aF81.63
aF0.79
aF0.0091
asI1360818000
(lp742
Vrain
p743
aVLight rain in the morning.
p744
aF34.4
aF43.61
aF0.52
aF0.0019
asI1355634000
(lp745
Vrain
p746
aVRain starting in the afternoon.
p747
aF39.07
aF45.87
aF0.69
aF0.0057
asI1338868800
(lp748
Vpartly-cloudy-day
p749
aVMostly cloudy throughout the day.
p750
aF52.55
aF63.04
aF0.27
aF0.0003
asI1354338000
(lp751
Vrain
p752
aVLight rain until afternoon.
p753
aF37.62
aF43.92
aF0.57
aF0.0023
asI1352955600
(lp754
Vpartly-cloudy-day
p755
aVMostly cloudy throughout the day.
p756
aF41.68
aF46.06
aI0
aI0
asI1345348800
(lp757
Vpartly-cloudy-day
p758
aVPartly cloudy until evening.
p759
aF65.49
aF73.76
aI0
aI0
asI1346990400
(lp760
Vpartly-cloudy-day
p761
aVPartly cloudy in the afternoon.
p762
aF69.14
aF81.04
aI0
aI0
asI1349496000
(lp763
Vrain
p764
aVLight rain starting in the evening.
p765
aF58.61
aF74.1
aF0.61
aF0.002
asI1340769600
(lp766
Vpartly-cloudy-night
p767
aVPartly cloudy in the morning.
p768
aF63.71
aF81.87
aI0
aI0
asI1358398800
(lp769
Vpartly-cloudy-night
p770
aVMostly cloudy starting in the evening.
p771
aF31.26
aF41.35
aI0
aI0
asI1336190400
(lp772
Vcloudy
p773
aVOvercast throughout the day.
p774
aF53.71
aF61.91
aI0
aI0
asI1355720400
(lp775
Vrain
p776
aVRain in the morning and overnight.
p777
aF42.72
aF46.42
aF0.72
aF0.0118
asI1342670400
(lp778
Vrain
p779
aVDrizzle in the afternoon.
p780
aF70.02
aF75.56
aF0.42
aF0.0006
asI1349755200
(lp781
Vrain
p782
aVLight rain in the morning and overnight.
p783
aF53.67
aF57.87
aF0.66
aF0.0055
asI1353042000
(lp784
Vpartly-cloudy-day
p785
aVMostly cloudy until evening.
p786
aF40.61
aF46.72
aI0
aI0
asI1338091200
(lp787
Vrain
p788
aVLight rain in the morning.
p789
aI66
aF79.42
aF0.67
aF0.0034
asI1347076800
(lp790
Vrain
p791
aVRain until afternoon, starting again in the evening, and breezy in the afternoon.
p792
aF69.46
aF80.22
aF0.8
aF0.0218
asI1336276800
(lp793
Vpartly-cloudy-day
p794
aVMostly cloudy until afternoon.
p795
aF49.14
aF61.88
aI0
aI0
asI1339992000
(lp796
Vpartly-cloudy-day
p797
aVMostly cloudy throughout the day.
p798
aF58.2
aF68.56
aI0
aI0
asI1356757200
(lp799
Vrain
p800
aVHeavy rain starting in the afternoon and breezy overnight.
p801
aF29.23
aF38.01
aF0.79
aF0.0268
asI1351051200
(lp802
Vpartly-cloudy-day
p803
aVMostly cloudy throughout the day.
p804
aF56.05
aF59.08
aF0.61
aF0.002
asI1355806800
(lp805
Vrain
p806
aVRain in the morning.
p807
aF44.69
aI54
aF0.79
aF0.0187
asI1335412800
(lp808
Vrain
p809
aVLight rain starting in the afternoon and breezy overnight.
p810
aF46.14
aF59.45
aF0.56
aF0.0011
asI1349841600
(lp811
Vrain
p812
aVRain in the morning.
p813
aF54.37
aF65.5
aF0.72
aF0.0081
asI1339041600
(lp814
Vpartly-cloudy-day
p815
aVMostly cloudy starting in the afternoon, continuing until evening.
p816
aF59.67
aF75.05
aF0.58
aF0.0014
asI1353128400
(lp817
Vpartly-cloudy-day
p818
aVPartly cloudy until evening.
p819
aF41.16
aF50.21
aI0
aI0
asI1341892800
(lp820
Vpartly-cloudy-night
p821
aVMostly cloudy overnight.
p822
aF69.06
aF81.79
aI0
aI0
asI1347163200
(lp823
Vrain
p824
aVLight rain starting in the afternoon, continuing until evening.
p825
aF62.94
aF72.44
aF0.66
aF0.0058
asI1348372800
(lp826
Vpartly-cloudy-day
p827
aVPartly cloudy until afternoon.
p828
aF59.42
aF69.22
aF0.15
aF0.0002
asI1356152400
(lp829
Vrain
p830
aVDrizzle in the morning and breezy starting in the afternoon.
p831
aF36.22
aF39.56
aF0.27
aF0.0005
asI1343793600
(lp832
Vrain
p833
aVRain until evening.
p834
aF71.4
aF76.55
aF0.82
aF0.0133
asI1358485200
(lp835
Vcloudy
p836
aVOvercast in the morning.
p837
aF24.84
aF36.14
aF0.27
aF0.0003
asI1341806400
(lp838
Vpartly-cloudy-day
p839
aVPartly cloudy throughout the day.
p840
aF70.26
aF81.87
aI0
aI0
asI1355893200
(lp841
Vwind
p842
aVMostly cloudy throughout the day and breezy until evening.
p843
aF41.29
aF46.27
aF0.27
aF0.0003
asI1339214400
(lp844
Vpartly-cloudy-day
p845
aVPartly cloudy throughout the day.
p846
aF66.38
aF77.62
aI0
aI0
asI1348718400
(lp847
Vrain
p848
aVLight rain in the morning.
p849
aF63.26
aF70.67
aF0.67
aF0.0022
asI1353214800
(lp850
Vpartly-cloudy-night
p851
aVPartly cloudy starting in the afternoon.
p852
aF38.84
aF48.25
aI0
aI0
asI1334635200
(lp853
Vpartly-cloudy-night
p854
aVDry throughout the day and partly cloudy overnight.
p855
aF66.45
aF77.21
aI0
aI0
asI1347249600
(lp856
Vpartly-cloudy-day
p857
aVPartly cloudy until evening.
p858
aF60.36
aF69.77
aI0
aI0
asI1355115600
(lp859
Vrain
p860
aVRain in the morning and overnight.
p861
aF45.61
aF57.57
aF0.75
aF0.0162
asI1341115200
(lp862
Vpartly-cloudy-day
p863
aVPartly cloudy in the afternoon.
p864
aF71.76
aF92.69
aI0
aI0
asI1352178000
(lp865
Vpartly-cloudy-day
p866
aVMostly cloudy throughout the day.
p867
aF34.65
aF43.4
aI0
aI0
asI1344571200
(lp868
Vrain
p869
aVRain in the afternoon and evening.
p870
aF71.74
aF79.87
aF0.84
aF0.0271
asI1358658000
(lp871
Vwind
p872
aVBreezy in the afternoon.
p873
aF33.94
aF51.49
aI0
aI0
asI1336536000
(lp874
Vrain
p875
aVRain in the morning and overnight.
p876
aF58.41
aF67.64
aF0.72
aF0.0107
asI1355979600
(lp877
Vrain
p878
aVLight rain and breezy overnight.
p879
aF37.37
aF46.15
aF0.27
aF0.0003
asI1343016000
(lp880
Vrain
p881
aVLight rain starting in the afternoon.
p882
aF69.34
aF84.24
aF0.66
aF0.0036
asI1350014400
(lp883
Vpartly-cloudy-day
p884
aVMostly cloudy until evening.
p885
aF46.57
aF58.04
aI0
aI0
asI1347768000
(lp886
Vpartly-cloudy-day
p887
aVPartly cloudy until evening.
p888
aF57.48
aF72.35
aI0
aI0
asI1338436800
(lp889
Vpartly-cloudy-night
p890
aVPartly cloudy in the morning.
p891
aF64.57
aF78.41
aI0
aI0
asI1347336000
(lp892
Vclear-day
p893
aVClear throughout the day.
p894
aF56.32
aF71.3
aI0
aI0
asI1344916800
(lp895
Vpartly-cloudy-day
p896
aVPartly cloudy starting in the afternoon.
p897
aF71.89
aF78.8
aF0.57
aF0.0007
asI1358744400
(lp898
Vsnow
p899
aVLight snow in the evening.
p900
aF27.04
aF32.05
aF0.52
aF0.001
asI1340337600
(lp901
Vrain
p902
aVRain in the evening and overnight.
p903
aF71.63
aF88.62
aF0.74
aF0.0063
asI1351310400
(lp904
Vpartly-cloudy-day
p905
aVPartly cloudy until afternoon.
p906
aF55.19
aF64.01
aI0
aI0
asI1357880400
(lp907
Vrain
p908
aVRain starting in the afternoon.
p909
aF36.19
aF45.02
aF0.74
aF0.0099
asI1346731200
(lp910
Vrain
p911
aVLight rain in the evening and overnight.
p912
aF68.89
aF77.63
aF0.69
aF0.0053
asI1335758400
(lp913
Vpartly-cloudy-night
p914
aVMostly cloudy starting in the evening.
p915
aF44.3
aF57.97
aI0
aI0
asI1350100800
(lp916
Vpartly-cloudy-day
p917
aVPartly cloudy in the morning.
p918
aF39.44
aF51.03
aI0
aI0
asI1351396800
(lp919
Vwind
p920
aVBreezy and mostly cloudy throughout the day.
p921
aF56.7
aF58.89
aI0
aI0
asI1342238400
(lp922
Vpartly-cloudy-day
p923
aVMostly cloudy until afternoon.
p924
aF72.38
aF82.41
aF0.04
aF0.0001
asI1360386000
(lp925
Vwind
p926
aVWindy until afternoon and mostly cloudy until evening.
p927
aF23.71
aF30.31
aF0.79
aF0.0107
asI1347422400
(lp928
Vclear-day
p929
aVClear throughout the day.
p930
aF59.09
aF74.6
aI0
aI0
as.