(dp0
I1343314800
(lp1
Vpartly-cloudy-day
p2
aVMostly cloudy throughout the day.
p3
aF80.85
aF92.61
aVrain
p4
asI1348239600
(lp5
Vpartly-cloudy-day
p6
aVMostly cloudy throughout the day.
p7
aF68.24
aF76.9
aVrain
p8
asI1338735600
(lp9
Vpartly-cloudy-day
p10
aVPartly cloudy throughout the day.
p11
aI64
aF79.26
aVrain
p12
asI1345561200
(lp13
Vpartly-cloudy-day
p14
aVPartly cloudy throughout the day.
p15
aI81
aF90.54
aVrain
p16
asI1359039600
(lp17
Vpartly-cloudy-day
p18
aVPartly cloudy throughout the day.
p19
aF37.92
aF54.01
aVrain
p20
asI1345215600
(lp21
Vpartly-cloudy-day
p22
aVHumid and mostly cloudy throughout the day.
p23
aF77.98
aF86.46
aVrain
p24
asI1340636400
(lp25
Vpartly-cloudy-day
p26
aVPartly cloudy throughout the day.
p27
aI61
aF73.39
aVrain
p28
asI1351004400
(lp29
Vpartly-cloudy-day
p30
aVPartly cloudy throughout the day.
p31
aF58.08
aF67.7
aVrain
p32
asI1336057200
(lp33
Vpartly-cloudy-day
p34
aVMostly cloudy throughout the day.
p35
aF63.92
aF70.31
aVrain
p36
asI1348326000
(lp37
Vpartly-cloudy-day
p38
aVHumid and mostly cloudy throughout the day.
p39
aF65.89
aI73
aVrain
p40
asI1342537200
(lp41
Vpartly-cloudy-day
p42
aVMostly cloudy throughout the day.
p43
aF77.92
aF89.61
aVrain
p44
asI1345647600
(lp45
Vpartly-cloudy-day
p46
aVPartly cloudy throughout the day.
p47
aI81
aF91.89
aVrain
p48
asI1337958000
(lp49
Vpartly-cloudy-day
p50
aVMostly cloudy until evening.
p51
aF63.92
aF76.25
aVrain
p52
asI1353769200
(lp53
Vpartly-cloudy-night
p54
aVPartly cloudy throughout the day.
p55
aF44.08
aF53.87
aVrain
p56
asI1351868400
(lp57
Vpartly-cloudy-day
p58
aVPartly cloudy until evening.
p59
aF53.15
aF63.78
aVrain
p60
asI1356966000
(lp61
Vpartly-cloudy-night
p62
aVPartly cloudy starting in the evening.
p63
aF41.38
aF56.97
aVrain
p64
asI1344438000
(lp65
Vpartly-cloudy-day
p66
aVPartly cloudy throughout the day.
p67
aF73.92
aF84.6
aVrain
p68
asI1351090800
(lp69
Vpartly-cloudy-day
p70
aVMostly cloudy throughout the day.
p71
aF58.08
aF65.9
aVrain
p72
asI1339858800
(lp73
Vpartly-cloudy-day
p74
aVMostly cloudy throughout the day.
p75
aF67.08
aF80.15
aVrain
p76
asI1348412400
(lp77
Vpartly-cloudy-day
p78
aVMostly cloudy throughout the day.
p79
aF66.92
aF80.71
aVrain
p80
asI1335279600
(lp81
Vpartly-cloudy-day
p82
aVMostly cloudy throughout the day.
p83
aF59.92
aF70.34
aVrain
p84
asI1356534000
(lp85
Vpartly-cloudy-day
p86
aVPartly cloudy until evening.
p87
aI34
aF44.14
aVrain
p88
asI1345734000
(lp89
Vpartly-cloudy-day
p90
aVPartly cloudy throughout the day.
p91
aI81
aF91.69
aVrain
p92
asI1341759600
(lp93
Vpartly-cloudy-day
p94
aVPartly cloudy throughout the day.
p95
aF68.92
aF82.53
aVrain
p96
asI1353855600
(lp97
Vfog
p98
aVFoggy in the afternoon.
p99
aF44.15
aF53.15
aVrain
p100
asI1337180400
(lp101
Vpartly-cloudy-day
p102
aVMostly cloudy throughout the day.
p103
aF64.92
aF78.94
aVrain
p104
asI1351177200
(lp105
Vpartly-cloudy-day
p106
aVPartly cloudy throughout the day.
p107
aF56.23
aF71.9
aVrain
p108
asI1343660400
(lp109
Vpartly-cloudy-day
p110
aVPartly cloudy throughout the day.
p111
aF79.62
aF90.64
aVrain
p112
asI1359298800
(lp113
Vpartly-cloudy-day
p114
aVPartly cloudy throughout the day.
p115
aF34.92
aF49.54
aVrain
p116
asI1339081200
(lp117
Vpartly-cloudy-day
p118
aVMostly cloudy throughout the day.
p119
aF67.85
aF80.09
aVrain
p120
asI1356620400
(lp121
Vpartly-cloudy-day
p122
aVMostly cloudy throughout the day.
p123
aF33.23
aF44.9
aVrain
p124
asI1345820400
(lp125
Vpartly-cloudy-day
p126
aVPartly cloudy throughout the day.
p127
aF80.37
aF92.22
aVrain
p128
asI1334502000
(lp129
Vpartly-cloudy-day
p130
aVMostly cloudy throughout the day.
p131
aF47.85
aF60.79
aVrain
p132
asI1353942000
(lp133
Vpartly-cloudy-day
p134
aVPartly cloudy throughout the day.
p135
aI46
aF55.7
aVrain
p136
asI1340982000
(lp137
Vpartly-cloudy-day
p138
aVMostly cloudy throughout the day.
p139
aF68.92
aF80.74
aVrain
p140
asI1351263600
(lp141
Vpartly-cloudy-day
p142
aVMostly cloudy throughout the day.
p143
aF62.08
aF67.79
aVrain
p144
asI1336402800
(lp145
Vpartly-cloudy-day
p146
aVMostly cloudy throughout the day.
p147
aI61
aF75.26
aVrain
p148
asI1359385200
(lp149
Vpartly-cloudy-night
p150
aVPartly cloudy throughout the day.
p151
aF37.15
aF52.97
aVrain
p152
asI1348585200
(lp153
Vpartly-cloudy-day
p154
aVMostly cloudy throughout the day.
p155
aI66
aF76.44
aVrain
p156
asI1356447600
(lp157
Vpartly-cloudy-night
p158
aVPartly cloudy throughout the day.
p159
aF35.08
aF43.86
aVrain
p160
asI1342882800
(lp161
Vpartly-cloudy-day
p162
aVMostly cloudy throughout the day.
p163
aI66
aF73.92
aVrain
p164
asI1356706800
(lp165
Vpartly-cloudy-day
p166
aVMostly cloudy throughout the day.
p167
aI39
aF51.77
aVrain
p168
asI1345906800
(lp169
Vpartly-cloudy-day
p170
aVPartly cloudy throughout the day.
p171
aF80.85
aF92.2
aVrain
p172
asI1338303600
(lp173
Vpartly-cloudy-day
p174
aVMostly cloudy throughout the day.
p175
aF61.92
aF73.55
aVrain
p176
asI1351782000
(lp177
Vpartly-cloudy-night
p178
aVPartly cloudy throughout the day.
p179
aI55
aF65.14
aVrain
p180
asI1358262000
(lp181
Vpartly-cloudy-day
p182
aVPartly cloudy throughout the day.
p183
aF36.08
aF42.06
aVrain
p184
asI1344783600
(lp185
Vpartly-cloudy-day
p186
aVMostly cloudy throughout the day.
p187
aF79.92
aF92.07
aVrain
p188
asI1360162800
(lp189
Vpartly-cloudy-day
p190
aVMostly cloudy until evening.
p191
aF37.92
aF53.57
aVrain
p192
asI1351350000
(lp193
Vpartly-cloudy-day
p194
aVMostly cloudy throughout the day.
p195
aF58.08
aF61.15
aVrain
p196
asI1340204400
(lp197
Vpartly-cloudy-day
p198
aVMostly cloudy throughout the day.
p199
aF70.92
aF77.84
aVrain
p200
asI1359471600
(lp201
Vpartly-cloudy-day
p202
aVPartly cloudy throughout the day.
p203
aF39.77
aF55.4
aVrain
p204
asI1348671600
(lp205
Vpartly-cloudy-day
p206
aVMostly cloudy throughout the day.
p207
aF65.08
aF75.04
aVrain
p208
asI1335625200
(lp209
Vpartly-cloudy-day
p210
aVMostly cloudy throughout the day.
p211
aF59.92
aF77.32
aVrain
p212
asI1350745200
(lp213
Vclear-day
p214
aVClear throughout the day.
p215
aI57
aF76.99
aVrain
p216
asI1345993200
(lp217
Vpartly-cloudy-day
p218
aVPartly cloudy throughout the day.
p219
aI81
aF92.12
aVrain
p220
asI1342105200
(lp221
Vpartly-cloudy-day
p222
aVMostly cloudy throughout the day.
p223
aI77
aF85.34
aVrain
p224
asI1350831600
(lp225
Vpartly-cloudy-night
p226
aVPartly cloudy throughout the day.
p227
aF60.08
aF72.95
aVrain
p228
asI1337526000
(lp229
Vpartly-cloudy-day
p230
aVMostly cloudy throughout the day.
p231
aF61.92
aF73.14
aVrain
p232
asI1351436400
(lp233
Vpartly-cloudy-day
p234
aVPartly cloudy throughout the day.
p235
aF58.23
aF71.44
aVrain
p236
asI1344006000
(lp237
Vpartly-cloudy-day
p238
aVMostly cloudy throughout the day.
p239
aI79
aF87.33
aVrain
p240
asI1359558000
(lp241
Vpartly-cloudy-day
p242
aVPartly cloudy throughout the day.
p243
aI36
aF47.74
aVrain
p244
asI1348758000
(lp245
Vpartly-cloudy-day
p246
aVMostly cloudy throughout the day.
p247
aF66.92
aF76.56
aVrain
p248
asI1339426800
(lp249
Vpartly-cloudy-day
p250
aVMostly cloudy throughout the day.
p251
aI61
aF64.92
aVrain
p252
asI1356879600
(lp253
Vpartly-cloudy-day
p254
aVPartly cloudy until evening.
p255
aF41.02
aF52.15
aVrain
p256
asI1334847600
(lp257
Vpartly-cloudy-day
p258
aVMostly cloudy throughout the day.
p259
aF52.92
aF60.66
aVrain
p260
asI1348153200
(lp261
Vpartly-cloudy-day
p262
aVMostly cloudy throughout the day.
p263
aF74.08
aF79.75
aVrain
p264
asI1341327600
(lp265
Vpartly-cloudy-day
p266
aVMostly cloudy throughout the day.
p267
aI70
aF82.6
aVrain
p268
asI1357052400
(lp269
Vpartly-cloudy-night
p270
aVPartly cloudy starting in the afternoon, continuing until evening.
p271
aF41.38
aF56.97
aVrain
p272
asI1334156400
(lp273
Vpartly-cloudy-day
p274
aVPartly cloudy throughout the day.
p275
aF52.92
aF71.57
aVrain
p276
asI1336748400
(lp277
Vpartly-cloudy-day
p278
aVPartly cloudy throughout the day.
p279
aF55.92
aF67.77
aVrain
p280
asI1359212400
(lp281
Vpartly-cloudy-day
p282
aVPartly cloudy throughout the day.
p283
aF34.77
aF47.71
aVrain
p284
asI1359644400
(lp285
Vpartly-cloudy-day
p286
aVMostly cloudy throughout the day.
p287
aI37
aF53.74
aVrain
p288
asI1348844400
(lp289
Vpartly-cloudy-day
p290
aVMostly cloudy throughout the day.
p291
aI72
aF81.46
aVrain
p292
asI1343228400
(lp293
Vpartly-cloudy-day
p294
aVPartly cloudy until evening.
p295
aF80.08
aF94.11
aVrain
p296
asI1347116400
(lp297
Vpartly-cloudy-day
p298
aVMostly cloudy throughout the day.
p299
aI79
aF89.79
aVrain
p300
asI1338649200
(lp301
Vpartly-cloudy-day
p302
aVMostly cloudy throughout the day.
p303
aI63
aF73.87
aVrain
p304
asI1357225200
(lp305
Vpartly-cloudy-day
p306
aVPartly cloudy throughout the day.
p307
aI34
aF43.14
aVrain
p308
asI1354287600
(lp309
Vpartly-cloudy-day
p310
aVMostly cloudy until evening.
p311
aI41
aF49.23
aVrain
p312
asI1345129200
(lp313
Vpartly-cloudy-day
p314
aVMostly cloudy throughout the day.
p315
aF81.77
aF94.26
aVrain
p316
asI1351609200
(lp317
Vpartly-cloudy-day
p318
aVPartly cloudy throughout the day.
p319
aI54
aF64.55
aVrain
p320
asI1340550000
(lp321
Vpartly-cloudy-day
p322
aVMostly cloudy throughout the day.
p323
aI63
aF67.08
aVrain
p324
asI1359730800
(lp325
Vpartly-cloudy-day
p326
aVPartly cloudy throughout the day.
p327
aI55
aF68.1
aVrain
p328
asI1347030000
(lp329
Vpartly-cloudy-day
p330
aVPartly cloudy throughout the day.
p331
aI79
aF88.1
aVrain
p332
asI1354460400
(lp333
Vpartly-cloudy-day
p334
aVMostly cloudy throughout the day.
p335
aF38.08
aI48
aVrain
p336
asI1342450800
(lp337
Vpartly-cloudy-day
p338
aVPartly cloudy throughout the day.
p339
aF81.62
aF91.92
aVrain
p340
asI1354374000
(lp341
Vpartly-cloudy-day
p342
aVMostly cloudy throughout the day.
p343
aF38.08
aF46.73
aVrain
p344
asI1337871600
(lp345
Vpartly-cloudy-day
p346
aVMostly cloudy throughout the day.
p347
aF65.85
aF70.6
aVrain
p348
asI1344351600
(lp349
Vpartly-cloudy-day
p350
aVMostly cloudy throughout the day.
p351
aF74.85
aF83.98
aVrain
p352
asI1359817200
(lp353
Vpartly-cloudy-day
p354
aVPartly cloudy throughout the day.
p355
aF44.08
aF54.65
aVrain
p356
asI1339772400
(lp357
Vpartly-cloudy-day
p358
aVHumid and mostly cloudy throughout the day.
p359
aF66.78
aI70
aVrain
p360
asI1357138800
(lp361
Vpartly-cloudy-day
p362
aVPartly cloudy throughout the day.
p363
aF36.92
aF49.08
aVrain
p364
asI1335193200
(lp365
Vpartly-cloudy-day
p366
aVPartly cloudy throughout the day.
p367
aF58.08
aF73.74
aVrain
p368
asI1357311600
(lp369
Vpartly-cloudy-day
p370
aVMostly cloudy throughout the day.
p371
aF33.15
aI41
aVrain
p372
asI1341673200
(lp373
Vpartly-cloudy-day
p374
aVMostly cloudy throughout the day.
p375
aI68
aF77.54
aVrain
p376
asI1360767600
(lp377
Vpartly-cloudy-day
p378
aVMostly cloudy throughout the day.
p379
aF41.92
aF49.2
aVrain
p380
asI1337439600
(lp381
Vpartly-cloudy-day
p382
aVMostly cloudy throughout the day.
p383
aF65.08
aF75.67
aVrain
p384
asI1358434800
(lp385
Vpartly-cloudy-day
p386
aVPartly cloudy until evening.
p387
aF33.23
aF42.46
aVrain
p388
asI1359903600
(lp389
Vpartly-cloudy-day
p390
aVPartly cloudy throughout the day.
p391
aF44.02
aF57.77
aVrain
p392
asI1343574000
(lp393
Vpartly-cloudy-day
p394
aVPartly cloudy throughout the day.
p395
aF81.77
aF90.38
aVrain
p396
asI1338994800
(lp397
Vpartly-cloudy-day
p398
aVMostly cloudy throughout the day.
p399
aF63.92
aF75.34
aVrain
p400
asI1346425200
(lp401
Vpartly-cloudy-day
p402
aVMostly cloudy throughout the day.
p403
aF77.38
aF85.39
aVrain
p404
asI1334415600
(lp405
Vpartly-cloudy-day
p406
aVPartly cloudy throughout the day.
p407
aI48
aF59.65
aVrain
p408
asI1345302000
(lp409
Vpartly-cloudy-day
p410
aVPartly cloudy throughout the day.
p411
aF79.92
aF90.57
aVrain
p412
asI1340895600
(lp413
Vpartly-cloudy-day
p414
aVPartly cloudy throughout the day.
p415
aF69.85
aF78.99
aVrain
p416
asI1358175600
(lp417
Vpartly-cloudy-day
p418
aVPartly cloudy throughout the day.
p419
aF34.38
aF44.16
aVrain
p420
asI1336316400
(lp421
Vpartly-cloudy-day
p422
aVPartly cloudy throughout the day.
p423
aF58.08
aF70.84
aVrain
p424
asI1349190000
(lp425
Vpartly-cloudy-day
p426
aVMostly cloudy throughout the day.
p427
aF65.08
aI72
aVrain
p428
asI1342796400
(lp429
Vpartly-cloudy-day
p430
aVMostly cloudy throughout the day.
p431
aF63.08
aF71.08
aVrain
p432
asI1346511600
(lp433
Vpartly-cloudy-day
p434
aVMostly cloudy throughout the day.
p435
aI75
aF82.57
aVrain
p436
asI1338217200
(lp437
Vpartly-cloudy-day
p438
aVMostly cloudy throughout the day.
p439
aI63
aF75.44
aVrain
p440
asI1344697200
(lp441
Vpartly-cloudy-day
p442
aVMostly cloudy throughout the day.
p443
aF78.08
aF87.01
aVrain
p444
asI1351954800
(lp445
Vpartly-cloudy-night
p446
aVPartly cloudy throughout the day.
p447
aI54
aF65.5
aVrain
p448
asI1354201200
(lp449
Vpartly-cloudy-day
p450
aVMostly cloudy throughout the day.
p451
aF49.9
aF53.55
aVrain
p452
asI1340118000
(lp453
Vwind
p454
aVBreezy in the morning and mostly cloudy throughout the day.
p455
aF74.62
aF84.23
aVrain
p456
asI1349276400
(lp457
Vpartly-cloudy-day
p458
aVMostly cloudy throughout the day.
p459
aF65.08
aF80.24
aVrain
p460
asI1335538800
(lp461
Vfog
p462
aVFoggy in the morning.
p463
aF59.92
aF72.46
aVrain
p464
asI1346598000
(lp465
Vpartly-cloudy-day
p466
aVMostly cloudy throughout the day.
p467
aF76.08
aF85.92
aVrain
p468
asI1353682800
(lp469
Vpartly-cloudy-day
p470
aVPartly cloudy throughout the day.
p471
aI48
aI54
aVrain
p472
asI1342018800
(lp473
Vwind
p474
aVMostly cloudy throughout the day and breezy in the morning.
p475
aF78.08
aF80.86
aVrain
p476
asI1354719600
(lp477
Vpartly-cloudy-day
p478
aVPartly cloudy until evening.
p479
aF46.92
aF63.64
aVrain
p480
asI1348498800
(lp481
Vpartly-cloudy-day
p482
aVMostly cloudy throughout the day.
p483
aF65.08
aI72
aVrain
p484
asI1352041200
(lp485
Vpartly-cloudy-day
p486
aVMostly cloudy throughout the day.
p487
aI52
aF60.08
aVrain
p488
asI1343919600
(lp489
Vpartly-cloudy-day
p490
aVPartly cloudy throughout the day.
p491
aF81.77
aF91.25
aVrain
p492
asI1349362800
(lp493
Vpartly-cloudy-day
p494
aVPartly cloudy throughout the day.
p495
aI68
aF81.61
aVrain
p496
asI1354028400
(lp497
Vpartly-cloudy-day
p498
aVMostly cloudy throughout the day.
p499
aF43.15
aF46.43
aVrain
p500
asI1339340400
(lp501
Vpartly-cloudy-day
p502
aVMostly cloudy throughout the day.
p503
aI64
aF72.78
aVrain
p504
asI1357484400
(lp505
Vpartly-cloudy-day
p506
aVPartly cloudy throughout the day.
p507
aF36.08
aF46.72
aVrain
p508
asI1346684400
(lp509
Vpartly-cloudy-day
p510
aVMostly cloudy throughout the day.
p511
aF75.92
aF87.24
aVrain
p512
asI1334761200
(lp513
Vpartly-cloudy-day
p514
aVMostly cloudy throughout the day.
p515
aI54
aF61.91
aVrain
p516
asI1354806000
(lp517
Vpartly-cloudy-day
p518
aVPartly cloudy throughout the day.
p519
aI43
aF53.66
aVrain
p520
asI1341241200
(lp521
Vpartly-cloudy-day
p522
aVMostly cloudy throughout the day.
p523
aF70.26
aF80.98
aVrain
p524
asI1352127600
(lp525
Vfog
p526
aVFoggy until evening.
p527
aI55
aF60.05
aVrain
p528
asI1336662000
(lp529
Vpartly-cloudy-day
p530
aVPartly cloudy throughout the day.
p531
aI57
aF70.06
aVrain
p532
asI1360249200
(lp533
Vpartly-cloudy-day
p534
aVMostly cloudy throughout the day.
p535
aI36
aF44.08
aVrain
p536
asI1349449200
(lp537
Vpartly-cloudy-day
p538
aVMostly cloudy throughout the day.
p539
aF71.08
aF80.56
aVrain
p540
asI1343142000
(lp541
Vpartly-cloudy-day
p542
aVMostly cloudy in the morning.
p543
aF78.85
aF90.44
aVrain
p544
asI1357570800
(lp545
Vpartly-cloudy-day
p546
aVPartly cloudy throughout the day.
p547
aF37.42
aF50.58
aVrain
p548
asI1346770800
(lp549
Vpartly-cloudy-day
p550
aVMostly cloudy throughout the day.
p551
aI77
aF90.6
aVrain
p552
asI1338562800
(lp553
Vpartly-cloudy-day
p554
aVMostly cloudy throughout the day.
p555
aF65.08
aF77.44
aVrain
p556
asI1354892400
(lp557
Vpartly-cloudy-day
p558
aVPartly cloudy throughout the day.
p559
aF40.76
aF61.65
aVrain
p560
asI1335106800
(lp561
Vfog
p562
aVFoggy in the evening.
p563
aF50.8
aF59.92
aVrain
p564
asI1345042800
(lp565
Vpartly-cloudy-day
p566
aVPartly cloudy throughout the day.
p567
aF81.85
aF91.31
aVrain
p568
asI1359990000
(lp569
Vpartly-cloudy-day
p570
aVMostly cloudy throughout the day.
p571
aF42.48
aF53.45
aVrain
p572
asI1352214000
(lp573
Vpartly-cloudy-day
p574
aVPartly cloudy throughout the day.
p575
aF55.92
aF67.74
aVrain
p576
asI1340463600
(lp577
Vpartly-cloudy-day
p578
aVMostly cloudy throughout the day.
p579
aI68
aF76.97
aVrain
p580
asI1360335600
(lp581
Vpartly-cloudy-day
p582
aVMostly cloudy throughout the day.
p583
aF35.08
aF46.72
aVrain
p584
asI1349535600
(lp585
Vpartly-cloudy-day
p586
aVMostly cloudy throughout the day.
p587
aI63
aF68.92
aVrain
p588
asI1335884400
(lp589
Vfog
p590
aVFoggy overnight.
p591
aI63
aF68.04
aVrain
p592
asI1357657200
(lp593
Vpartly-cloudy-day
p594
aVPartly cloudy throughout the day.
p595
aF39.86
aF48.09
aVrain
p596
asI1346857200
(lp597
Vpartly-cloudy-day
p598
aVMostly cloudy throughout the day.
p599
aI75
aF89.51
aVrain
p600
asI1342364400
(lp601
Vpartly-cloudy-day
p602
aVMostly cloudy throughout the day.
p603
aF80.85
aF89.23
aVrain
p604
asI1354978800
(lp605
Vpartly-cloudy-day
p606
aVPartly cloudy throughout the day.
p607
aF38.85
aF50.68
aVrain
p608
asI1337785200
(lp609
Vpartly-cloudy-day
p610
aVPartly cloudy until evening.
p611
aI64
aF79.46
aVrain
p612
asI1352300400
(lp613
Vpartly-cloudy-day
p614
aVPartly cloudy until evening.
p615
aF51.08
aF67.64
aVrain
p616
asI1344265200
(lp617
Vpartly-cloudy-day
p618
aVPartly cloudy throughout the day.
p619
aF77.92
aF89.48
aVrain
p620
asI1352646000
(lp621
Vpartly-cloudy-day
p622
aVPartly cloudy throughout the day.
p623
aF54.23
aF65.68
aVrain
p624
asI1349622000
(lp625
Vpartly-cloudy-day
p626
aVMostly cloudy throughout the day.
p627
aI64
aF72.65
aVrain
p628
asI1339686000
(lp629
Vpartly-cloudy-day
p630
aVMostly cloudy throughout the day.
p631
aI61
aF74.73
aVrain
p632
asI1357743600
(lp633
Vpartly-cloudy-day
p634
aVPartly cloudy throughout the day.
p635
aF37.99
aF47.01
aVrain
p636
asI1346943600
(lp637
Vpartly-cloudy-day
p638
aVPartly cloudy throughout the day.
p639
aI75
aF86.8
aVrain
p640
asI1346166000
(lp641
Vpartly-cloudy-day
p642
aVMostly cloudy throughout the day.
p643
aF80.08
aF89.07
aVrain
p644
asI1355065200
(lp645
Vpartly-cloudy-day
p646
aVPartly cloudy until evening.
p647
aI36
aF49.13
aVrain
p648
asI1341586800
(lp649
Vpartly-cloudy-day
p650
aVHumid and mostly cloudy throughout the day.
p651
aF67.49
aF76.08
aVrain
p652
asI1352386800
(lp653
Vpartly-cloudy-day
p654
aVPartly cloudy throughout the day.
p655
aF58.56
aF67.3
aVrain
p656
asI1337007600
(lp657
Vfog
p658
aVFoggy in the evening.
p659
aI63
aF68.19
aVrain
p660
asI1360508400
(lp661
Vpartly-cloudy-day
p662
aVPartly cloudy throughout the day.
p663
aI37
aF47.77
aVrain
p664
asI1349708400
(lp665
Vpartly-cloudy-day
p666
aVMostly cloudy throughout the day.
p667
aF62.08
aF71.74
aVrain
p668
asI1343487600
(lp669
Vpartly-cloudy-day
p670
aVMostly cloudy throughout the day.
p671
aF81.92
aF90.44
aVrain
p672
asI1357830000
(lp673
Vpartly-cloudy-day
p674
aVPartly cloudy throughout the day.
p675
aI37
aF47.06
aVrain
p676
asI1338908400
(lp677
Vpartly-cloudy-day
p678
aVMostly cloudy throughout the day.
p679
aF63.6
aF70.78
aVrain
p680
asI1355151600
(lp681
Vpartly-cloudy-day
p682
aVPartly cloudy until evening.
p683
aF35.15
aF52.2
aVrain
p684
asI1334329200
(lp685
Vpartly-cloudy-day
p686
aVMostly cloudy throughout the day.
p687
aI48
aI55
aVrain
p688
asI1352473200
(lp689
Vpartly-cloudy-day
p690
aVPartly cloudy throughout the day.
p691
aF55.92
aF67.09
aVrain
p692
asI1340809200
(lp693
Vpartly-cloudy-day
p694
aVMostly cloudy throughout the day.
p695
aF66.92
aF76.14
aVrain
p696
asI1360594800
(lp697
Vpartly-cloudy-day
p698
aVMostly cloudy throughout the day.
p699
aF34.15
aF44.08
aVrain
p700
asI1349794800
(lp701
Vpartly-cloudy-day
p702
aVMostly cloudy throughout the day.
p703
aF60.23
aF71.9
aVrain
p704
asI1336230000
(lp705
Vpartly-cloudy-day
p706
aVPartly cloudy throughout the day.
p707
aF61.92
aF77.29
aVrain
p708
asI1346252400
(lp709
Vpartly-cloudy-day
p710
aVMostly cloudy throughout the day.
p711
aI81
aF92.76
aVrain
p712
asI1357916400
(lp713
Vpartly-cloudy-day
p714
aVPartly cloudy until evening.
p715
aF34.92
aF47.22
aVrain
p716
asI1342710000
(lp717
Vpartly-cloudy-day
p718
aVMostly cloudy throughout the day.
p719
aI66
aI72
aVrain
p720
asI1354633200
(lp721
Vpartly-cloudy-day
p722
aVPartly cloudy throughout the day.
p723
aF41.38
aF55.55
aVrain
p724
asI1355238000
(lp725
Vpartly-cloudy-day
p726
aVPartly cloudy until evening.
p727
aF39.54
aF51.3
aVrain
p728
asI1338130800
(lp729
Vpartly-cloudy-day
p730
aVPartly cloudy throughout the day.
p731
aF64.57
aF75.51
aVrain
p732
asI1349881200
(lp733
Vpartly-cloudy-day
p734
aVMostly cloudy throughout the day.
p735
aI64
aF75.74
aVrain
p736
asI1354114800
(lp737
Vpartly-cloudy-night
p738
aVMostly cloudy throughout the day.
p739
aF40.85
aF60.04
aVrain
p740
asI1344610800
(lp741
Vpartly-cloudy-day
p742
aVMostly cloudy throughout the day.
p743
aI81
aF88.67
aVrain
p744
asI1360681200
(lp745
Vpartly-cloudy-day
p746
aVPartly cloudy throughout the day.
p747
aF34.15
aF52.48
aVrain
p748
asI1340031600
(lp749
Vwind
p750
aVMostly cloudy throughout the day and windy overnight.
p751
aF72.92
aF78.94
aVrain
p752
asI1353596400
(lp753
Vpartly-cloudy-day
p754
aVMostly cloudy throughout the day.
p755
aF46.86
aF55.92
aVrain
p756
asI1358002800
(lp757
Vpartly-cloudy-night
p758
aVMostly cloudy throughout the day.
p759
aF34.15
aF54.71
aVrain
p760
asI1335452400
(lp761
Vfog
p762
aVFoggy until afternoon.
p763
aI61
aF63.6
aVrain
p764
asI1355324400
(lp765
Vpartly-cloudy-day
p766
aVPartly cloudy until evening.
p767
aF37.92
aF52.6
aVrain
p768
asI1341932400
(lp769
Vpartly-cloudy-day
p770
aVMostly cloudy throughout the day.
p771
aF74.85
aF84.93
aVrain
p772
asI1337353200
(lp773
Vpartly-cloudy-day
p774
aVPartly cloudy until evening.
p775
aI59
aF75.43
aVrain
p776
asI1349103600
(lp777
Vpartly-cloudy-day
p778
aVMostly cloudy throughout the day.
p779
aF70.92
aF78.37
aVrain
p780
asI1343833200
(lp781
Vpartly-cloudy-day
p782
aVPartly cloudy throughout the day.
p783
aF80.85
aF92.66
aVrain
p784
asI1339167600
(lp785
Vfog
p786
aVFoggy starting in the afternoon, continuing until evening.
p787
aF64.92
aF70.92
aVrain
p788
asI1358089200
(lp789
Vfog
p790
aVFoggy until afternoon.
p791
aF33.12
aI50
aVrain
p792
asI1339254000
(lp793
Vpartly-cloudy-day
p794
aVMostly cloudy throughout the day.
p795
aF64.92
aF80.53
aVrain
p796
asI1347289200
(lp797
Vpartly-cloudy-day
p798
aVPartly cloudy throughout the day.
p799
aI79
aF90.38
aVrain
p800
asI1360422000
(lp801
Vpartly-cloudy-day
p802
aVPartly cloudy throughout the day.
p803
aF35.08
aF49.22
aVrain
p804
asI1334674800
(lp805
Vpartly-cloudy-day
p806
aVPartly cloudy throughout the day.
p807
aF52.8
aF66.34
aVrain
p808
asI1354546800
(lp809
Vpartly-cloudy-day
p810
aVMostly cloudy throughout the day.
p811
aF47.08
aF55.2
aVrain
p812
asI1341154800
(lp813
Vpartly-cloudy-day
p814
aVMostly cloudy throughout the day.
p815
aF67.08
aF79.98
aVrain
p816
asI1360854000
(lp817
Vpartly-cloudy-day
p818
aVMostly cloudy throughout the day.
p819
aF38.69
aF45.91
aVrain
p820
asI1336575600
(lp821
Vpartly-cloudy-day
p822
aVPartly cloudy throughout the day.
p823
aF57.92
aF72.6
aVrain
p824
asI1350054000
(lp825
Vpartly-cloudy-day
p826
aVPartly cloudy throughout the day.
p827
aF63.92
aF75.21
aVrain
p828
asI1349967600
(lp829
Vpartly-cloudy-day
p830
aVMostly cloudy throughout the day.
p831
aF63.08
aF74.77
aVrain
p832
asI1343055600
(lp833
Vpartly-cloudy-day
p834
aVMostly cloudy until evening.
p835
aI75
aF87.02
aVrain
p836
asI1347375600
(lp837
Vpartly-cloudy-day
p838
aVPartly cloudy throughout the day.
p839
aI77
aF88.34
aVrain
p840
asI1338476400
(lp841
Vpartly-cloudy-day
p842
aVMostly cloudy throughout the day.
p843
aF66.92
aF77.34
aVrain
p844
asI1344956400
(lp845
Vpartly-cloudy-day
p846
aVMostly cloudy throughout the day.
p847
aF78.85
aF90.74
aVrain
p848
asI1352818800
(lp849
Vpartly-cloudy-day
p850
aVPartly cloudy until evening.
p851
aF51.08
aF64.52
aVrain
p852
asI1348930800
(lp853
Vwind
p854
aVMostly cloudy throughout the day and breezy starting in the evening.
p855
aF73.15
aF83.66
aVrain
p856
asI1340377200
(lp857
Vpartly-cloudy-day
p858
aVMostly cloudy throughout the day.
p859
aF68.92
aF75.88
aVrain
p860
asI1350140400
(lp861
Vpartly-cloudy-day
p862
aVMostly cloudy throughout the day.
p863
aF61.11
aF66.77
aVrain
p864
asI1347202800
(lp865
Vpartly-cloudy-day
p866
aVPartly cloudy throughout the day.
p867
aI79
aF90.34
aVrain
p868
asI1335798000
(lp869
Vpartly-cloudy-day
p870
aVMostly cloudy throughout the day.
p871
aF65.85
aF71.25
aVrain
p872
asI1347462000
(lp873
Vpartly-cloudy-day
p874
aVPartly cloudy throughout the day.
p875
aF77.92
aF90.1
aVrain
p876
asI1335020400
(lp877
Vfog
p878
aVFoggy overnight.
p879
aF49.08
aF55.56
aVrain
p880
asI1342278000
(lp881
Vpartly-cloudy-day
p882
aVMostly cloudy throughout the day.
p883
aF80.85
aI90
aVrain
p884
asI1355583600
(lp885
Vpartly-cloudy-day
p886
aVPartly cloudy starting in the afternoon, continuing until evening.
p887
aF44.08
aF63.94
aVrain
p888
asI1337698800
(lp889
Vpartly-cloudy-day
p890
aVMostly cloudy throughout the day.
p891
aF56.08
aF73.98
aVrain
p892
asI1352905200
(lp893
Vpartly-cloudy-day
p894
aVPartly cloudy until evening.
p895
aF47.08
aF59.14
aVrain
p896
asI1356274800
(lp897
Vpartly-cloudy-day
p898
aVPartly cloudy throughout the day.
p899
aF38.08
aF45.89
aVrain
p900
asI1344178800
(lp901
Vpartly-cloudy-day
p902
aVHumid and mostly cloudy throughout the day.
p903
aF77.59
aF84.14
aVrain
p904
asI1350226800
(lp905
Vpartly-cloudy-day
p906
aVPartly cloudy throughout the day.
p907
aF62.53
aF77.77
aVrain
p908
asI1346338800
(lp909
Vpartly-cloudy-day
p910
aVPartly cloudy throughout the day.
p911
aF81.77
aF90.52
aVrain
p912
asI1339599600
(lp913
Vpartly-cloudy-day
p914
aVPartly cloudy throughout the day.
p915
aI61
aF72.02
aVrain
p916
asI1358348400
(lp917
Vpartly-cloudy-day
p918
aVMostly cloudy throughout the day.
p919
aF32.92
aF45.96
aVrain
p920
asI1347548400
(lp921
Vpartly-cloudy-day
p922
aVPartly cloudy throughout the day.
p923
aF79.92
aF88.5
aVrain
p924
asI1358953200
(lp925
Vpartly-cloudy-day
p926
aVPartly cloudy throughout the day.
p927
aI37
aF48.15
aVrain
p928
asI1346079600
(lp929
Vpartly-cloudy-day
p930
aVMostly cloudy throughout the day.
p931
aF81.92
aF90.69
aVrain
p932
asI1355670000
(lp933
Vpartly-cloudy-day
p934
aVMostly cloudy throughout the day.
p935
aF43.1
aF48.15
aVrain
p936
asI1344870000
(lp937
Vpartly-cloudy-day
p938
aVMostly cloudy throughout the day.
p939
aF79.91
aF86.73
aVrain
p940
asI1352559600
(lp941
Vpartly-cloudy-day
p942
aVMostly cloudy throughout the day.
p943
aF53.15
aF58.8
aVrain
p944
asI1352991600
(lp945
Vpartly-cloudy-night
p946
aVPartly cloudy throughout the day.
p947
aF49.23
aF61.8
aVrain
p948
asI1336921200
(lp949
Vpartly-cloudy-day
p950
aVMostly cloudy throughout the day.
p951
aI59
aF74.8
aVrain
p952
asI1350313200
(lp953
Vpartly-cloudy-day
p954
aVPartly cloudy until evening.
p955
aI61
aF71.14
aVrain
p956
asI1343401200
(lp957
Vpartly-cloudy-day
p958
aVPartly cloudy throughout the day.
p959
aF81.77
aF90.72
aVrain
p960
asI1353510000
(lp961
Vpartly-cloudy-day
p962
aVMostly cloudy throughout the day.
p963
aF46.92
aF56.61
aVrain
p964
asI1347634800
(lp965
Vpartly-cloudy-day
p966
aVPartly cloudy throughout the day.
p967
aF79.77
aF86.41
aVrain
p968
asI1338822000
(lp969
Vpartly-cloudy-day
p970
aVMostly cloudy throughout the day.
p971
aF68.92
aF73.2
aVrain
p972
asI1355756400
(lp973
Vpartly-cloudy-day
p974
aVMostly cloudy throughout the day.
p975
aF45.92
aF59.16
aVrain
p976
asI1334242800
(lp977
Vpartly-cloudy-day
p978
aVMostly cloudy throughout the day.
p979
aF55.92
aF71.01
aVrain
p980
asI1353078000
(lp981
Vpartly-cloudy-day
p982
aVMostly cloudy throughout the day.
p983
aF51.23
aF63.08
aVrain
p984
asI1340722800
(lp985
Vpartly-cloudy-day
p986
aVMostly cloudy throughout the day.
p987
aI61
aF75.58
aVrain
p988
asI1350399600
(lp989
Vfog
p990
aVFoggy starting in the evening.
p991
aF59.15
aI72
aVrain
p992
asI1336143600
(lp993
Vpartly-cloudy-day
p994
aVPartly cloudy until evening.
p995
aF60.85
aF78.13
aVrain
p996
asI1358521200
(lp997
Vpartly-cloudy-day
p998
aVPartly cloudy throughout the day.
p999
aI32
aF48.78
aVrain
p1000
asI1347721200
(lp1001
Vpartly-cloudy-day
p1002
aVMostly cloudy throughout the day.
p1003
aI79
aF87.9
aVrain
p1004
asI1355497200
(lp1005
Vfog
p1006
aVFoggy in the afternoon.
p1007
aF42.28
aI48
aVrain
p1008
asI1335970800
(lp1009
Vfog
p1010
aVFoggy in the morning.
p1011
aF62.08
aF65.85
aVrain
p1012
asI1355842800
(lp1013
Vpartly-cloudy-day
p1014
aVPartly cloudy throughout the day.
p1015
aF39.8
aF46.68
aVrain
p1016
asI1338044400
(lp1017
Vpartly-cloudy-day
p1018
aVPartly cloudy until evening.
p1019
aF67.7
aF78.01
aVrain
p1020
asI1353164400
(lp1021
Vpartly-cloudy-day
p1022
aVPartly cloudy throughout the day.
p1023
aI50
aF62.12
aVrain
p1024
asI1344524400
(lp1025
Vpartly-cloudy-day
p1026
aVMostly cloudy throughout the day.
p1027
aF74.85
aF86.37
aVrain
p1028
asI1350486000
(lp1029
Vpartly-cloudy-day
p1030
aVMostly cloudy throughout the day.
p1031
aF58.08
aF68.14
aVrain
p1032
asI1339945200
(lp1033
Vpartly-cloudy-day
p1034
aVMostly cloudy throughout the day.
p1035
aI72
aF80.87
aVrain
p1036
asI1358607600
(lp1037
Vpartly-cloudy-day
p1038
aVPartly cloudy until evening.
p1039
aF37.15
aF49.9
aVrain
p1040
asI1347807600
(lp1041
Vpartly-cloudy-day
p1042
aVPartly cloudy throughout the day.
p1043
aF77.92
aF86.91
aVrain
p1044
asI1335366000
(lp1045
Vfog
p1046
aVFoggy overnight.
p1047
aF61.92
aF68.53
aVrain
p1048
asI1355929200
(lp1049
Vpartly-cloudy-day
p1050
aVPartly cloudy throughout the day.
p1051
aF37.8
aF49.9
aVrain
p1052
asI1341846000
(lp1053
Vpartly-cloudy-day
p1054
aVPartly cloudy throughout the day.
p1055
aF73.92
aF86.71
aVrain
p1056
asI1353250800
(lp1057
Vpartly-cloudy-day
p1058
aVMostly cloudy until evening.
p1059
aF44.08
aI50
aVrain
p1060
asI1348066800
(lp1061
Vpartly-cloudy-day
p1062
aVPartly cloudy throughout the day.
p1063
aI77
aF86.78
aVrain
p1064
asI1337266800
(lp1065
Vpartly-cloudy-day
p1066
aVPartly cloudy throughout the day.
p1067
aI59
aF72.94
aVrain
p1068
asI1349017200
(lp1069
Vpartly-cloudy-day
p1070
aVPartly cloudy throughout the day.
p1071
aF76.85
aF85.63
aVrain
p1072
asI1350572400
(lp1073
Vpartly-cloudy-day
p1074
aVPartly cloudy throughout the day.
p1075
aI55
aF67.4
aVrain
p1076
asI1343746800
(lp1077
Vpartly-cloudy-day
p1078
aVPartly cloudy throughout the day.
p1079
aF80.85
aF88.5
aVrain
p1080
asI1357398000
(lp1081
Vpartly-cloudy-day
p1082
aVMostly cloudy until afternoon.
p1083
aI30
aF49.35
aVrain
p1084
asI1358694000
(lp1085
Vpartly-cloudy-day
p1086
aVMostly cloudy throughout the day.
p1087
aF37.15
aF48.77
aVrain
p1088
asI1347894000
(lp1089
Vpartly-cloudy-day
p1090
aVMostly cloudy throughout the day.
p1091
aI77
aF86.14
aVrain
p1092
asI1337094000
(lp1093
Vpartly-cloudy-day
p1094
aVDry and mostly cloudy throughout the day.
p1095
aI63
aF78.94
aVrain
p1096
asI1356015600
(lp1097
Vpartly-cloudy-night
p1098
aVMostly cloudy throughout the day.
p1099
aI37
aF48.28
aVrain
p1100
asI1334588400
(lp1101
Vpartly-cloudy-day
p1102
aVMostly cloudy throughout the day.
p1103
aI54
aI65
aVrain
p1104
asI1347980400
(lp1105
Vpartly-cloudy-day
p1106
aVMostly cloudy throughout the day.
p1107
aF76.64
aF83.3
aVrain
p1108
asI1353337200
(lp1109
Vpartly-cloudy-day
p1110
aVPartly cloudy until evening.
p1111
aI43
aF63.34
aVrain
p1112
asI1341068400
(lp1113
Vfog
p1114
aVFoggy overnight.
p1115
aI68
aF75.65
aVrain
p1116
asI1356361200
(lp1117
Vpartly-cloudy-day
p1118
aVPartly cloudy until evening.
p1119
aF32.91
aF48.57
aVrain
p1120
asI1350658800
(lp1121
Vpartly-cloudy-day
p1122
aVPartly cloudy throughout the day.
p1123
aI57
aF69.66
aVrain
p1124
asI1336489200
(lp1125
Vpartly-cloudy-day
p1126
aVMostly cloudy throughout the day.
p1127
aI61
aF71.09
aVrain
p1128
asI1358780400
(lp1129
Vpartly-cloudy-day
p1130
aVMostly cloudy until evening.
p1131
aF38.32
aF48.77
aVrain
p1132
asI1342969200
(lp1133
Vpartly-cloudy-day
p1134
aVMostly cloudy throughout the day.
p1135
aI70
aF81.91
aVrain
p1136
asI1356102000
(lp1137
Vpartly-cloudy-day
p1138
aVMostly cloudy until evening.
p1139
aF37.91
aF51.08
aVrain
p1140
asI1338390000
(lp1141
Vpartly-cloudy-day
p1142
aVMostly cloudy throughout the day.
p1143
aI63
aF73.56
aVrain
p1144
asI1356793200
(lp1145
Vfog
p1146
aVFoggy starting in the afternoon, continuing until evening.
p1147
aF43.15
aF46.92
aVrain
p1148
asI1353423600
(lp1149
Vpartly-cloudy-day
p1150
aVPartly cloudy throughout the day.
p1151
aI48
aF58.06
aVrain
p1152
asI1342623600
(lp1153
Vpartly-cloudy-day
p1154
aVMostly cloudy throughout the day.
p1155
aI72
aF93.57
aVrain
p1156
asI1355410800
(lp1157
Vpartly-cloudy-day
p1158
aVMostly cloudy until evening.
p1159
aF37.15
aF52.44
aVrain
p1160
asI1345388400
(lp1161
Vpartly-cloudy-day
p1162
aVPartly cloudy throughout the day.
p1163
aF77.15
aF90.52
aVrain
p1164
asI1340290800
(lp1165
Vfog
p1166
aVFoggy in the morning.
p1167
aF64.92
aI73
aVrain
p1168
asI1358866800
(lp1169
Vpartly-cloudy-day
p1170
aVMostly cloudy throughout the day.
p1171
aF39.78
aF46.6
aVrain
p1172
asI1335711600
(lp1173
Vpartly-cloudy-day
p1174
aVMostly cloudy throughout the day.
p1175
aF65.85
aF72.7
aVrain
p1176
asI1356188400
(lp1177
Vpartly-cloudy-day
p1178
aVPartly cloudy throughout the day.
p1179
aF40.23
aI50
aVrain
p1180
asI1342191600
(lp1181
Vpartly-cloudy-day
p1182
aVMostly cloudy throughout the day.
p1183
aF74.8
aF88.98
aVrain
p1184
asI1359126000
(lp1185
Vpartly-cloudy-day
p1186
aVPartly cloudy throughout the day.
p1187
aF35.85
aF44.87
aVrain
p1188
asI1337612400
(lp1189
Vpartly-cloudy-day
p1190
aVMostly cloudy throughout the day.
p1191
aF55.7
aF61.92
aVrain
p1192
asI1352732400
(lp1193
Vpartly-cloudy-day
p1194
aVPartly cloudy until evening.
p1195
aI55
aF63.13
aVrain
p1196
asI1344092400
(lp1197
Vpartly-cloudy-day
p1198
aVPartly cloudy throughout the day.
p1199
aF79.92
aF91.78
aVrain
p1200
asI1341500400
(lp1201
Vpartly-cloudy-day
p1202
aVMostly cloudy throughout the day.
p1203
aI73
aF82.31
aVrain
p1204
asI1339513200
(lp1205
Vpartly-cloudy-day
p1206
aVMostly cloudy throughout the day.
p1207
aF60.08
aI68
aVrain
p1208
asI1350918000
(lp1209
Vpartly-cloudy-day
p1210
aVMostly cloudy until evening.
p1211
aF59.92
aF75.42
aVrain
p1212
asI1351522800
(lp1213
Vpartly-cloudy-day
p1214
aVMostly cloudy throughout the day.
p1215
aF54.08
aF63.58
aVrain
p1216
asI1334934000
(lp1217
Vpartly-cloudy-day
p1218
aVMostly cloudy throughout the day.
p1219
aF50.92
aI57
aVrain
p1220
asI1345474800
(lp1221
Vpartly-cloudy-day
p1222
aVPartly cloudy throughout the day.
p1223
aF79.92
aF91.14
aVrain
p1224
asI1351695600
(lp1225
Vpartly-cloudy-day
p1226
aVPartly cloudy until evening.
p1227
aF51.08
aF69.54
aVrain
p1228
asI1341414000
(lp1229
Vpartly-cloudy-day
p1230
aVMostly cloudy throughout the day.
p1231
aF75.77
aF83.78
aVrain
p1232
asI1360076400
(lp1233
Vfog
p1234
aVFoggy until afternoon.
p1235
aF35.15
aF47.85
aVrain
p1236
asI1336834800
(lp1237
Vpartly-cloudy-day
p1238
aVPartly cloudy throughout the day.
p1239
aI54
aF69.63
aVrain
p1240
as.