(dp0
I1337659200
(lp1
F64.975
aF6.46
aF0.68
aF0.0086
asI1344139200
(lp2
F79.54499999999999
aF9.11
aF0.82
aF0.0116
asI1339560000
(lp3
F66.265
aF6.44
aF0.79
aF0.017
asI1350187200
(lp4
F60.405
aF13.55
aI0
aI0
asI1334980800
(lp5
F61.92999999999999
aF8.42
aF0.52
aF0.0005
asI1347508800
(lp6
F69.385
aF7.87
aI0
aI0
asI1341460800
(lp7
F84.61
aF7.08
aI0
aI0
asI1358830800
(lp8
F23.055
aF16.51
aF0.27
aF0.0003
asI1353301200
(lp9
F44.515
aF8.69
aI0
aI0
asI1336881600
(lp10
F68.75
aF8.23
aI0
aI0
asI1343361600
(lp11
F78.97
aF6.12
aI0
aI0
asI1350273600
(lp12
F66.24000000000001
aF9.75
aF0.66
aF0.0037
asI1338782400
(lp13
F59.19
aF8.08
aF0.7
aF0.0046
asI1353560400
(lp14
F47.855000000000004
aF6.4
aI0
aI0
asI1354597200
(lp15
F49.864999999999995
aF5.62
aF0.69
aF0.0037
asI1347595200
(lp16
F68.045
aF6.34
aI0
aI0
asI1334203200
(lp17
F50.84
aF10.42
aI0
aI0
asI1358571600
(lp18
F37.135
aF16.17
aI0
aI0
asI1340683200
(lp19
F65.855
aF14.49
aI0
aI0
asI1356238800
(lp20
F38.765
aF14.25
aI0
aI0
asI1336104000
(lp21
F61.790000000000006
aF4.73
aF0.73
aF0.0049
asI1350446400
(lp22
F52.655
aF2.26
aI0
aI0
asI1350360000
(lp23
F56.905
aF10.22
aF0.64
aF0.002
asI1342584000
(lp24
F85.57499999999999
aF6.4
aF0.9
aF0.0443
asI1353646800
(lp25
F46.365
aF3.83
aF0.42
aF0.0005
asI1349928000
(lp26
F54.315
aF10.61
aI0
aI0
asI1338004800
(lp27
F73.145
aF5.46
aF0.56
aF0.0007
asI1355202000
(lp28
F48.49
aF8.42
aF0.54
aF0.0021
asI1344484800
(lp29
F76.045
aF6.23
aI0
aI0
asI1359090000
(lp30
F19.195
aF11.06
aF0.49
aF0.0013
asI1339905600
(lp31
F64.625
aF5.73
aI0
aI0
asI1356411600
(lp32
F38.43000000000001
aF7.53
aF0.68
aF0.0039
asI1335326400
(lp33
F52.245000000000005
aF4.13
aI0
aI0
asI1353733200
(lp34
F43.215
aF14.42
aI0
aI0
asI1336795200
(lp35
F63.515
aF5.26
aI0
aI0
asI1337227200
(lp36
F63.045
aF5.53
aI0
aI0
asI1359176400
(lp37
F23.06
aF12.69
aI0
aI0
asI1343707200
(lp38
F74.86
aF4.24
aI0
aI0
asI1346817600
(lp39
F75.58
aF6.02
aF0.81
aF0.0238
asI1339128000
(lp40
F69.285
aF4.93
aI0
aI0
asI1353819600
(lp41
F37.7
aF16.35
aI0
aI0
asI1334548800
(lp42
F71.815
aF8.1
aI0
aI0
asI1357102800
(lp43
F27.255
aF12.99
aI0
aI0
asI1341028800
(lp44
F82.96
aF8.78
aI0
aI0
asI1345780800
(lp45
F75.445
aF1.24
aI0
aI0
asI1336449600
(lp46
F59.06
aF13.94
aF0.56
aF0.001
asI1356584400
(lp47
F37.565
aF8.99
aF0.8
aF0.0259
asI1342929600
(lp48
F71.875
aF5.97
aI0
aI0
asI1350619200
(lp49
F63.785
aF9.07
aF0.82
aF0.0212
asI1353906000
(lp50
F42.655
aF9.87
aI0
aI0
asI1338350400
(lp51
F71.15
aF3.98
aF0.48
aF0.0005
asI1347940800
(lp52
F70.87
aF12.61
aF0.91
aF0.0536
asI1357016400
(lp53
F31.314999999999998
aF13.79
aI0
aI0
asI1344830400
(lp54
F76.15
aF6.39
aI0
aI0
asI1345262400
(lp55
F71.5
aF4.23
aF0.8
aF0.0237
asI1359349200
(lp56
F31.41
aF2.85
aF0.62
aF0.0051
asI1340251200
(lp57
F84.78999999999999
aF8.39
aI0
aI0
asI1356670800
(lp58
F34.205
aF14.13
aI0
aI0
asI1335672000
(lp59
F53.370000000000005
aF9.8
aI0
aI0
asI1350705600
(lp60
F62.785
aF7.27
aF0.61
aF0.0023
asI1353992400
(lp61
F37.935
aF5.68
aF0.73
aF0.0183
asI1342152000
(lp62
F77.41999999999999
aF5.27
aI0
aI0
asI1348027200
(lp63
F65.97999999999999
aF4.32
aF0.85
aF0.0118
asI1357362000
(lp64
F37.345
aF11.4
aI0
aI0
asI1337572800
(lp65
F60.675
aF9.15
aF0.84
aF0.0387
asI1359262800
(lp66
F25.835
aF13.73
aI0
aI0
asI1344052800
(lp67
F79.14
aF7.62
aI0
aI0
asI1358053200
(lp68
F45.78
aF5.7
aF0.16
aF0.0002
asI1350532800
(lp69
F55.760000000000005
aF5.67
aI0
aI0
asI1339473600
(lp70
F67.74000000000001
aF10.17
aF0.81
aF0.0277
asI1350792000
(lp71
F57.655
aF10.93
aI0
aI0
asI1354078800
(lp72
F38.715
aF11.27
aF0.57
aF0.0028
asI1345953600
(lp73
F71.945
aF5.16
aI0
aI0
asI1335844800
(lp74
F59.885000000000005
aF3.03
aF0.84
aF0.0184
asI1348113600
(lp75
F62.045
aF8.25
aI0
aI0
asI1360645200
(lp76
F39.650000000000006
aF13.19
aF0.27
aF0.0003
asI1341374400
(lp77
F81.94999999999999
aF6.69
aF0.68
aF0.0023
asI1355288400
(lp78
F38.89
aF8.38
aI0
aI0
asI1345435200
(lp79
F70.34
aF3.09
aI0
aI0
asI1359522000
(lp80
F48.56
aF10.74
aF0.65
aF0.0035
asI1347854400
(lp81
F64.715
aF4.14
aI0
aI0
asI1356843600
(lp82
F35.08
aF20.83
aF0.64
aF0.0018
asI1343275200
(lp83
F80.49
aF7.81
aF0.86
aF0.0229
asI1350878400
(lp84
F59.83
aF12.53
aI0
aI0
asI1354165200
(lp85
F38.94
aF11.64
aI0
aI0
asI1338696000
(lp86
F67.055
aF9.75
aF0.72
aF0.0057
asI1354251600
(lp87
F39.685
aF5.89
aI0
aI0
asI1348200000
(lp88
F63.31999999999999
aF5.49
aI0
aI0
asI1345176000
(lp89
F77.84
aF7.32
aF0.73
aF0.003
asI1345521600
(lp90
F72.73
aF3.25
aI0
aI0
asI1359608400
(lp91
F45.905
aF20.24
aF0.88
aF0.0358
asI1340596800
(lp92
F68.715
aF2.02
aF0.79
aF0.0195
asI1356930000
(lp93
F34.144999999999996
aF14.12
aI0
aI0
asI1336017600
(lp94
F53.5
aF5.71
aF0.85
aF0.0128
asI1350964800
(lp95
F58.795
aF6.21
aF0.57
aF0.0008
asI1342497600
(lp96
F84.16
aF7.42
aI0
aI0
asI1348286400
(lp97
F67.265
aF2.54
aF0.82
aF0.008
asI1337918400
(lp98
F66.28999999999999
aF5.03
aI0
aI0
asI1345608000
(lp99
F73.25
aF2.52
aF0.21
aF0.0004
asI1344398400
(lp100
F75.39
aF4.92
aI0
aI0
asI1345867200
(lp101
F74.47999999999999
aF6.35
aF0.27
aF0.0003
asI1339819200
(lp102
F69.05000000000001
aF4.17
aI0
aI0
asI1335240000
(lp103
F50.205
aF13.62
aI0
aI0
asI1341720000
(lp104
F81.215
aF1.34
aF0.84
aF0.0172
asI1359003600
(lp105
F17.869999999999997
aF16.19
aI0
aI0
asI1345694400
(lp106
F73.66499999999999
aF5.12
aI0
aI0
asI1337140800
(lp107
F68.49000000000001
aF5.22
aF0.72
aF0.0042
asI1343620800
(lp108
F73.29499999999999
aF4.02
aI0
aI0
asI1351137600
(lp109
F56.870000000000005
aF5.36
aI0
aI0
asI1334289600
(lp110
F53.644999999999996
aF2.37
aI0
aI0
asI1354424400
(lp111
F45.835
aF4.11
aF0.66
aF0.002
asI1357966800
(lp112
F43.835
aF5.53
aF0.71
aF0.0041
asI1348459200
(lp113
F60.325
aF6.74
aI0
aI0
asI1334462400
(lp114
F67.9
aF8.16
aI0
aI0
asI1340942400
(lp115
F82.095
aF7.3
aF0.83
aF0.0131
asI1357448400
(lp116
F38.295
aF7.83
aI0
aI0
asI1336363200
(lp117
F57.715
aF7.69
aF0.27
aF0.0003
asI1357189200
(lp118
F28.205
aF9.36
aI0
aI0
asI1352523600
(lp119
F47.989999999999995
aF4.99
aI0
aI0
asI1351224000
(lp120
F57.695
aF2.79
aI0
aI0
asI1342843200
(lp121
F68.625
aF3.25
aI0
aI0
asI1354510800
(lp122
F52.54
aF5.68
aI0
aI0
asI1338264000
(lp123
F77.66499999999999
aF7.49
aF0.8
aF0.0105
asI1356498000
(lp124
F35.739999999999995
aF13.02
aF0.79
aF0.0201
asI1344744000
(lp125
F77.325
aF5.72
aF0.85
aF0.013
asI1359954000
(lp126
F27.75
aF14.96
aI0
aI0
asI1349582400
(lp127
F54.129999999999995
aF5.79
aF0.72
aF0.0086
asI1340164800
(lp128
F80.35
aF6.61
aI0
aI0
asI1357275600
(lp129
F33.895
aF13.73
aI0
aI0
asI1335585600
(lp130
F49.22
aF10.43
aI0
aI0
asI1352091600
(lp131
F41.269999999999996
aF12.68
aF0.57
aF0.0015
asI1359435600
(lp132
F39.565
aF1.64
aF0.74
aF0.0045
asI1342065600
(lp133
F76.11
aF5.55
aI0
aI0
asI1348545600
(lp134
F61.22
aF9.28
aI0
aI0
asI1337486400
(lp135
F65.43
aF7.37
aI0
aI0
asI1360040400
(lp136
F30.415
aF4.36
aF0.49
aF0.0011
asI1343966400
(lp137
F78.65
aF8.44
aI0
aI0
asI1353474000
(lp138
F47.635000000000005
aF8.26
aI0
aI0
asI1356066000
(lp139
F47.08
aF9.72
aF0.83
aF0.034
asI1339387200
(lp140
F68.565
aF9.77
aI0
aI0
asI1354683600
(lp141
F46.925
aF10.24
aF0.27
aF0.0004
asI1334808000
(lp142
F57.349999999999994
aF6.85
aF0.63
aF0.0024
asI1341288000
(lp143
F78.08
aF3.4
aI0
aI0
asI1346040000
(lp144
F73.235
aF5.65
aF0.88
aF0.0171
asI1336708800
(lp145
F59.725
aF11.47
aI0
aI0
asI1347681600
(lp146
F67.275
aF6.29
aF0.48
aF0.0006
asI1358917200
(lp147
F15.52
aF15.54
aI0
aI0
asI1343188800
(lp148
F76.22
aF7.36
aI0
aI0
asI1360126800
(lp149
F34.47
aF8.75
aF0.16
aF0.0004
asI1354770000
(lp150
F35.78
aF8.04
aI0
aI0
asI1338609600
(lp151
F69.155
aF3.05
aF0.83
aF0.02
asI1348804800
(lp152
F64.925
aF4.88
aF0.9
aF0.0656
asI1345089600
(lp153
F74.88499999999999
aF3.17
aF0.27
aF0.0003
asI1346126400
(lp154
F78.55
aF6.9
aF0.79
aF0.0074
asI1360213200
(lp155
F30.12
aF7.91
aI0
aI0
asI1340510400
(lp156
F73.62
aF2.18
aI0
aI0
asI1357534800
(lp157
F38.56
aF7.31
aI0
aI0
asI1335931200
(lp158
F53.32
aF6.88
aF0.54
aF0.0021
asI1351569600
(lp159
F55.905
aF14.22
aF0.71
aF0.0096
asI1354856400
(lp160
F39.599999999999994
aF3.2
aF0.56
aF0.0047
asI1342411200
(lp161
F80.315
aF7.47
aF0.27
aF0.0003
asI1348891200
(lp162
F61.205
aI3
aF0.8
aF0.0188
asI1337832000
(lp163
F62.89
aF6.28
aF0.78
aF0.0174
asI1346212800
(lp164
F71.655
aF7.44
aI0
aI0
asI1360299600
(lp165
F32.05
aF18.6
aF0.81
aF0.0354
asI1344312000
(lp166
F73.6
aF1.43
aI0
aI0
asI1359867600
(lp167
F28.240000000000002
aF8.02
aF0.18
aF0.0005
asI1357621200
(lp168
F41.165000000000006
aF9.62
aI0
aI0
asI1339732800
(lp169
F69.925
aF3.65
aI0
aI0
asI1351656000
(lp170
F50.67
aF7.79
aF0.57
aF0.0013
asI1354942800
(lp171
F47.735
aF1.68
aF0.75
aF0.0149
asI1335153600
(lp172
F50.155
aF4.63
aF0.88
aF0.0267
asI1348977600
(lp173
F60.894999999999996
aF4.26
aF0.71
aF0.0127
asI1352264400
(lp174
F38.795
aF21.86
aF0.81
aF0.0344
asI1341633600
(lp175
F84.82
aF4.85
aI0
aI0
asI1346299200
(lp176
F71.07
aF6.72
aI0
aI0
asI1337054400
(lp177
F61.715
aF8.48
aF0.75
aF0.0096
asI1349668800
(lp178
F51.010000000000005
aF5.6
aF0.57
aF0.0016
asI1357707600
(lp179
F40.84
aF5.98
aI0
aI0
asI1343534400
(lp180
F73.92
aF3.65
aF0.64
aF0.0013
asI1351742400
(lp181
F50.785
aF11.41
aI0
aI0
asI1355029200
(lp182
F45.855
aF5.42
aF0.63
aF0.0053
asI1338955200
(lp183
F62.595
aF2.48
aF0.27
aF0.0003
asI1349064000
(lp184
F62.540000000000006
aF13.72
aI0
aI0
asI1334376000
(lp185
F58.845
aF6.8
aI0
aI0
asI1348632000
(lp186
F68.88
aF9.87
aF0.27
aF0.0006
asI1346385600
(lp187
F76.75
aF12.06
aI0
aI0
asI1360472400
(lp188
F28.28
aF7.01
aI0
aI0
asI1340856000
(lp189
F77.415
aF8.05
aI0
aI0
asI1357794000
(lp190
F43.235
aF11.9
aI0
aI0
asI1334894400
(lp191
F60.125
aF7.95
aI0
aI0
asI1351828800
(lp192
F49.425
aF10.38
aF0.27
aF0.0003
asI1353387600
(lp193
F45.45
aF9.12
aI0
aI0
asI1342756800
(lp194
F68.1
aF8.06
aF0.78
aF0.0152
asI1349150400
(lp195
F65.815
aF0.89
aF0.76
aF0.0169
asI1338177600
(lp196
F76.67500000000001
aF4.73
aF0.04
aF0.0001
asI1346472000
(lp197
F76.48
aF4.02
aI0
aI0
asI1344657600
(lp198
F78.405
aF9.74
aF0.27
aF0.0008
asI1352350800
(lp199
F41.565
aF21.28
aF0.83
aF0.0289
asI1340078400
(lp200
F69.455
aF7.72
aI0
aI0
asI1351915200
(lp201
F47.51
aF14.23
aI0
aI0
asI1360731600
(lp202
F36.31
aF3.69
aF0.43
aF0.0005
asI1335499200
(lp203
F49.754999999999995
aF17.56
aF0.63
aF0.0024
asI1349236800
(lp204
F67.23
aF3.35
aF0.7
aF0.0043
asI1341979200
(lp205
F76.4
aF4.76
aI0
aI0
asI1359694800
(lp206
F29.034999999999997
aF16.96
aI0
aI0
asI1346558400
(lp207
F73.705
aF3.92
aI0
aI0
asI1337400000
(lp208
F64.355
aF2.69
aI0
aI0
asI1343880000
(lp209
F77.995
aF4.29
aF0.27
aF0.0005
asI1352001600
(lp210
F46.435
aF10.13
aI0
aI0
asI1339300800
(lp211
F72.42500000000001
aF2.33
aF0.29
aF0.0003
asI1349323200
(lp212
F69.555
aF2.81
aF0.27
aF0.0003
asI1334721600
(lp213
F56.42
aF3.52
aI0
aI0
asI1352610000
(lp214
F50.89
aF6.73
aI0
aI0
asI1346644800
(lp215
F70.765
aI8
aI0
aI0
asI1341201600
(lp216
F78.805
aF8.22
aI0
aI0
asI1358139600
(lp217
F48.435
aF4.5
aF0.66
aF0.0022
asI1336622400
(lp218
F58.295
aF11.5
aF0.73
aF0.0086
asI1343102400
(lp219
F81.97
aF6.97
aI0
aI0
asI1355374800
(lp220
F40.629999999999995
aF5.1
aI0
aI0
asI1349409600
(lp221
F67.92
aF3.05
aI0
aI0
asI1338523200
(lp222
F65.88
aF10.54
aI0
aI0
asI1352696400
(lp223
F55.19499999999999
aF7.71
aI0
aI0
asI1345003200
(lp224
F74.19
aF3.46
aF0.81
aF0.0166
asI1356325200
(lp225
F36.010000000000005
aF3.36
aF0.59
aF0.0024
asI1340424000
(lp226
F76.92
aF6.63
aF0.6
aF0.0014
asI1337313600
(lp227
F60.485
aF3.07
aI0
aI0
asI1355547600
(lp228
F42.0
aF5.07
aI0
aI0
asI1346904000
(lp229
F71.675
aF1.61
aI0
aI0
asI1355461200
(lp230
F40.845
aF8.46
aI0
aI0
asI1342324800
(lp231
F79.765
aF5.72
aF0.84
aF0.0117
asI1352782800
(lp232
F51.894999999999996
aF4.5
aF0.73
aF0.0117
asI1359781200
(lp233
F26.03
aF10.96
aF0.49
aF0.0006
asI1337745600
(lp234
F66.18
aF4.76
aF0.61
aF0.002
asI1360904400
(lp235
F42.16
aF5.38
aI0
aI0
asI1344225600
(lp236
F78.97999999999999
aF5.4
aF0.8
aF0.015
asI1358226000
(lp237
F39.665
aF8.28
aF0.68
aF0.0061
asI1339646400
(lp238
F67.76
aF5.52
aI0
aI0
asI1351483200
(lp239
F58.67
aF23.63
aF0.91
aF0.0526
asI1335067200
(lp240
F52.46
aF11.33
aF0.86
aF0.0696
asI1360558800
(lp241
F36.805
aF6.62
aF0.82
aF0.0247
asI1352869200
(lp242
F44.38
aF15.1
aF0.61
aF0.0023
asI1341547200
(lp243
F80.345
aF3.47
aI0
aI0
asI1336968000
(lp244
F65.41
aF7.69
aF0.32
aF0.0005
asI1358312400
(lp245
F38.015
aF2.49
aF0.79
aF0.0234
asI1352437200
(lp246
F45.94
aF15.33
aF0.27
aF0.0003
asI1343448000
(lp247
F75.66999999999999
aF5.7
aF0.79
aF0.0091
asI1360818000
(lp248
F39.004999999999995
aF4.13
aF0.52
aF0.0019
asI1355634000
(lp249
F42.47
aF11.27
aF0.69
aF0.0057
asI1338868800
(lp250
F57.795
aF7.51
aF0.27
aF0.0003
asI1354338000
(lp251
F40.769999999999996
aF10.27
aF0.57
aF0.0023
asI1352955600
(lp252
F43.870000000000005
aF12.47
aI0
aI0
asI1345348800
(lp253
F69.625
aF4.37
aI0
aI0
asI1346990400
(lp254
F75.09
aF5.65
aI0
aI0
asI1349496000
(lp255
F66.35499999999999
aF6.95
aF0.61
aF0.002
asI1340769600
(lp256
F72.79
aF12.33
aI0
aI0
asI1358398800
(lp257
F36.305
aF8.8
aI0
aI0
asI1336190400
(lp258
F57.81
aF4.41
aI0
aI0
asI1355720400
(lp259
F44.57
aF12.52
aF0.72
aF0.0118
asI1342670400
(lp260
F72.78999999999999
aF5.7
aF0.42
aF0.0006
asI1349755200
(lp261
F55.769999999999996
aF10.33
aF0.66
aF0.0055
asI1353042000
(lp262
F43.665
aF10.42
aI0
aI0
asI1338091200
(lp263
F72.71000000000001
aF3.48
aF0.67
aF0.0034
asI1347076800
(lp264
F74.84
aF8.62
aF0.8
aF0.0218
asI1336276800
(lp265
F55.510000000000005
aF5.12
aI0
aI0
asI1339992000
(lp266
F63.38
aF6.18
aI0
aI0
asI1356757200
(lp267
F33.62
aF6.21
aF0.79
aF0.0268
asI1351051200
(lp268
F57.565
aF5.47
aF0.61
aF0.002
asI1355806800
(lp269
F49.345
aF3.93
aF0.79
aF0.0187
asI1335412800
(lp270
F52.795
aF5.11
aF0.56
aF0.0011
asI1349841600
(lp271
F59.935
aF0.97
aF0.72
aF0.0081
asI1339041600
(lp272
F67.36
aF2.43
aF0.58
aF0.0014
asI1353128400
(lp273
F45.685
aF10.39
aI0
aI0
asI1341892800
(lp274
F75.42500000000001
aF3.26
aI0
aI0
asI1347163200
(lp275
F67.69
aF5.07
aF0.66
aF0.0058
asI1348372800
(lp276
F64.32
aF4.6
aF0.15
aF0.0002
asI1356152400
(lp277
F37.89
aF17.73
aF0.27
aF0.0005
asI1343793600
(lp278
F73.975
aF4.57
aF0.82
aF0.0133
asI1358485200
(lp279
F30.490000000000002
aF10.96
aF0.27
aF0.0003
asI1341806400
(lp280
F76.065
aF3.58
aI0
aI0
asI1355893200
(lp281
F43.78
aF17.87
aF0.27
aF0.0003
asI1339214400
(lp282
F72.0
aF5.55
aI0
aI0
asI1348718400
(lp283
F66.965
aF2.8
aF0.67
aF0.0022
asI1353214800
(lp284
F43.545
aF8.24
aI0
aI0
asI1334635200
(lp285
F71.83
aF9.27
aI0
aI0
asI1347249600
(lp286
F65.065
aF11.98
aI0
aI0
asI1355115600
(lp287
F51.59
aF3.93
aF0.75
aF0.0162
asI1341115200
(lp288
F82.225
aF7.96
aI0
aI0
asI1352178000
(lp289
F39.025
aF6.47
aI0
aI0
asI1344571200
(lp290
F75.805
aF7.42
aF0.84
aF0.0271
asI1358658000
(lp291
F42.715
aF13.23
aI0
aI0
asI1336536000
(lp292
F63.025
aF4.97
aF0.72
aF0.0107
asI1355979600
(lp293
F41.76
aF6.3
aF0.27
aF0.0003
asI1343016000
(lp294
F76.78999999999999
aF5.18
aF0.66
aF0.0036
asI1350014400
(lp295
F52.305
aF10.09
aI0
aI0
asI1347768000
(lp296
F64.91499999999999
aF6.29
aI0
aI0
asI1338436800
(lp297
F71.49
aF6.8
aI0
aI0
asI1347336000
(lp298
F63.81
aF6.52
aI0
aI0
asI1344916800
(lp299
F75.345
aF5.35
aF0.57
aF0.0007
asI1358744400
(lp300
F29.544999999999998
aF5.81
aF0.52
aF0.001
asI1340337600
(lp301
F80.125
aF2.67
aF0.74
aF0.0063
asI1351310400
(lp302
F59.6
aF7.24
aI0
aI0
asI1357880400
(lp303
F40.605000000000004
aF2.98
aF0.74
aF0.0099
asI1346731200
(lp304
F73.25999999999999
aF5.98
aF0.69
aF0.0053
asI1335758400
(lp305
F51.135
aF3.63
aI0
aI0
asI1350100800
(lp306
F45.235
aF4.49
aI0
aI0
asI1351396800
(lp307
F57.795
aI18
aI0
aI0
asI1342238400
(lp308
F77.395
aF6.23
aF0.04
aF0.0001
asI1360386000
(lp309
F27.009999999999998
aF24.05
aF0.79
aF0.0107
asI1347422400
(lp310
F66.845
aF5.76
aI0
aI0
as.