(dp0
I1343314800
(lp1
F86.72999999999999
aF5.18
aVrain
p2
asI1348239600
(lp3
F72.57
aF5.08
aVrain
p4
asI1338735600
(lp5
F71.63
aF4.69
aVrain
p6
asI1345561200
(lp7
F85.77000000000001
aF9.42
aVrain
p8
asI1359039600
(lp9
F45.965
aF4.07
aVrain
p10
asI1345215600
(lp11
F82.22
aF3.12
aVrain
p12
asI1340636400
(lp13
F67.195
aF6.46
aVrain
p14
asI1351004400
(lp15
F62.89
aF9.09
aVrain
p16
asI1336057200
(lp17
F67.11500000000001
aF1.31
aVrain
p18
asI1348326000
(lp19
F69.445
aF6.01
aVrain
p20
asI1342537200
(lp21
F83.765
aF4.43
aVrain
p22
asI1345647600
(lp23
F86.445
aF6.49
aVrain
p24
asI1337958000
(lp25
F70.08500000000001
aF1.65
aVrain
p26
asI1353769200
(lp27
F48.974999999999994
aF1.12
aVrain
p28
asI1351868400
(lp29
F58.465
aF7.49
aVrain
p30
asI1356966000
(lp31
F49.175
aF9.45
aVrain
p32
asI1344438000
(lp33
F79.25999999999999
aF4.76
aVrain
p34
asI1351090800
(lp35
F61.99
aF4.22
aVrain
p36
asI1339858800
(lp37
F73.61500000000001
aF1.38
aVrain
p38
asI1348412400
(lp39
F73.815
aF2.1
aVrain
p40
asI1335279600
(lp41
F65.13
aF5.2
aVrain
p42
asI1356534000
(lp43
F39.07
aF4.22
aVrain
p44
asI1345734000
(lp45
F86.345
aF6.11
aVrain
p46
asI1341759600
(lp47
F75.725
aF3.62
aVrain
p48
asI1353855600
(lp49
F48.65
aF3.76
aVrain
p50
asI1337180400
(lp51
F71.93
aF5.58
aVrain
p52
asI1351177200
(lp53
F64.065
aF4.88
aVrain
p54
asI1343660400
(lp55
F85.13
aF6.79
aVrain
p56
asI1359298800
(lp57
F42.230000000000004
aF8.53
aVrain
p58
asI1339081200
(lp59
F73.97
aF6.03
aVrain
p60
asI1356620400
(lp61
F39.065
aF2.72
aVrain
p62
asI1345820400
(lp63
F86.295
aF5.59
aVrain
p64
asI1334502000
(lp65
F54.32
aF2.8
aVrain
p66
asI1353942000
(lp67
F50.85
aF8.65
aVrain
p68
asI1340982000
(lp69
F74.83
aF4.86
aVrain
p70
asI1351263600
(lp71
F64.935
aF6.39
aVrain
p72
asI1336402800
(lp73
F68.13
aF0.45
aVrain
p74
asI1359385200
(lp75
F45.06
aF6.44
aVrain
p76
asI1348585200
(lp77
F71.22
aF6.02
aVrain
p78
asI1356447600
(lp79
F39.47
aF9.29
aVrain
p80
asI1342882800
(lp81
F69.96000000000001
aF3.61
aVrain
p82
asI1356706800
(lp83
F45.385000000000005
aF6.21
aVrain
p84
asI1345906800
(lp85
F86.525
aF5.23
aVrain
p86
asI1338303600
(lp87
F67.735
aF2.18
aVrain
p88
asI1351782000
(lp89
F60.07
aF8.12
aVrain
p90
asI1358262000
(lp91
F39.07
aF3.47
aVrain
p92
asI1344783600
(lp93
F85.995
aF10.71
aVrain
p94
asI1360162800
(lp95
F45.745000000000005
aF2.4
aVrain
p96
asI1351350000
(lp97
F59.614999999999995
aF4.23
aVrain
p98
asI1340204400
(lp99
F74.38
aF4.97
aVrain
p100
asI1359471600
(lp101
F47.585
aF7.22
aVrain
p102
asI1348671600
(lp103
F70.06
aF8.08
aVrain
p104
asI1335625200
(lp105
F68.62
aF3.8
aVrain
p106
asI1350745200
(lp107
F66.995
aF2.38
aVrain
p108
asI1345993200
(lp109
F86.56
aF6.87
aVrain
p110
asI1342105200
(lp111
F81.17
aF9.67
aVrain
p112
asI1350831600
(lp113
F66.515
aF1.68
aVrain
p114
asI1337526000
(lp115
F67.53
aF5.81
aVrain
p116
asI1351436400
(lp117
F64.835
aF8.38
aVrain
p118
asI1344006000
(lp119
F83.16499999999999
aF4.18
aVrain
p120
asI1359558000
(lp121
F41.870000000000005
aF2.38
aVrain
p122
asI1348758000
(lp123
F71.74000000000001
aF9.21
aVrain
p124
asI1339426800
(lp125
F62.96
aF6.63
aVrain
p126
asI1356879600
(lp127
F46.585
aF0.34
aVrain
p128
asI1334847600
(lp129
F56.79
aF5.05
aVrain
p130
asI1348153200
(lp131
F76.91499999999999
aF3.44
aVrain
p132
asI1341327600
(lp133
F76.3
aF2.65
aVrain
p134
asI1357052400
(lp135
F49.175
aF9.84
aVrain
p136
asI1334156400
(lp137
F62.245
aF1.82
aVrain
p138
asI1336748400
(lp139
F61.845
aF11.05
aVrain
p140
asI1359212400
(lp141
F41.24
aF4.51
aVrain
p142
asI1359644400
(lp143
F45.370000000000005
aF1.72
aVrain
p144
asI1348844400
(lp145
F76.72999999999999
aF1.88
aVrain
p146
asI1343228400
(lp147
F87.095
aF3.38
aVrain
p148
asI1347116400
(lp149
F84.39500000000001
aF7.62
aVrain
p150
asI1338649200
(lp151
F68.435
aF4.45
aVrain
p152
asI1357225200
(lp153
F38.57
aF10.25
aVrain
p154
asI1354287600
(lp155
F45.114999999999995
aF5.46
aVrain
p156
asI1345129200
(lp157
F88.015
aF1.34
aVrain
p158
asI1351609200
(lp159
F59.275
aI3
aVrain
p160
asI1340550000
(lp161
F65.03999999999999
aF7.22
aVrain
p162
asI1359730800
(lp163
F61.55
aF7.3
aVrain
p164
asI1347030000
(lp165
F83.55
aF4.77
aVrain
p166
asI1354460400
(lp167
F43.04
aF8.02
aVrain
p168
asI1342450800
(lp169
F86.77000000000001
aF6.77
aVrain
p170
asI1354374000
(lp171
F42.405
aF5.06
aVrain
p172
asI1337871600
(lp173
F68.225
aF2.63
aVrain
p174
asI1344351600
(lp175
F79.41499999999999
aF6.95
aVrain
p176
asI1359817200
(lp177
F49.364999999999995
aF5.62
aVrain
p178
asI1339772400
(lp179
F68.39
aF2.55
aVrain
p180
asI1357138800
(lp181
F43.0
aF7.5
aVrain
p182
asI1335193200
(lp183
F65.91
aF2.15
aVrain
p184
asI1357311600
(lp185
F37.075
aF4.05
aVrain
p186
asI1341673200
(lp187
F72.77000000000001
aF1.97
aVrain
p188
asI1360767600
(lp189
F45.56
aF2.84
aVrain
p190
asI1337439600
(lp191
F70.375
aF5.83
aVrain
p192
asI1358434800
(lp193
F37.845
aF7.81
aVrain
p194
asI1359903600
(lp195
F50.895
aF2.49
aVrain
p196
asI1343574000
(lp197
F86.07499999999999
aF10.07
aVrain
p198
asI1338994800
(lp199
F69.63
aF7.96
aVrain
p200
asI1346425200
(lp201
F81.38499999999999
aF5.02
aVrain
p202
asI1334415600
(lp203
F53.825
aF4.04
aVrain
p204
asI1345302000
(lp205
F85.245
aF8.47
aVrain
p206
asI1340895600
(lp207
F74.41999999999999
aF5.7
aVrain
p208
asI1358175600
(lp209
F39.269999999999996
aF7.98
aVrain
p210
asI1336316400
(lp211
F64.46000000000001
aF3.28
aVrain
p212
asI1349190000
(lp213
F68.53999999999999
aF6.35
aVrain
p214
asI1342796400
(lp215
F67.08
aF3.43
aVrain
p216
asI1346511600
(lp217
F78.785
aF3.87
aVrain
p218
asI1338217200
(lp219
F69.22
aF5.72
aVrain
p220
asI1344697200
(lp221
F82.545
aI5
aVrain
p222
asI1351954800
(lp223
F59.75
aF3.39
aVrain
p224
asI1354201200
(lp225
F51.724999999999994
aF5.2
aVrain
p226
asI1340118000
(lp227
F79.42500000000001
aF14.98
aVrain
p228
asI1349276400
(lp229
F72.66
aF4.45
aVrain
p230
asI1335538800
(lp231
F66.19
aF3.06
aVrain
p232
asI1346598000
(lp233
F81.0
aF1.87
aVrain
p234
asI1353682800
(lp235
I51
aF5.16
aVrain
p236
asI1342018800
(lp237
F79.47
aF15.14
aVrain
p238
asI1354719600
(lp239
F55.28
aF5.43
aVrain
p240
asI1348498800
(lp241
F68.53999999999999
aF6.58
aVrain
p242
asI1352041200
(lp243
F56.04
aF4.27
aVrain
p244
asI1343919600
(lp245
F86.50999999999999
aF4.66
aVrain
p246
asI1349362800
(lp247
F74.805
aF2.36
aVrain
p248
asI1354028400
(lp249
F44.79
aF2.85
aVrain
p250
asI1339340400
(lp251
F68.39
aF4.6
aVrain
p252
asI1357484400
(lp253
F41.4
aF2.87
aVrain
p254
asI1346684400
(lp255
F81.58
aF1.89
aVrain
p256
asI1334761200
(lp257
F57.955
aF6.73
aVrain
p258
asI1354806000
(lp259
F48.33
aF3.56
aVrain
p260
asI1341241200
(lp261
F75.62
aF2.14
aVrain
p262
asI1352127600
(lp263
F57.525
aF3.75
aVrain
p264
asI1336662000
(lp265
F63.53
aF11.42
aVrain
p266
asI1360249200
(lp267
F40.04
aF10.57
aVrain
p268
asI1349449200
(lp269
F75.82
aF2.63
aVrain
p270
asI1343142000
(lp271
F84.645
aF4.54
aVrain
p272
asI1357570800
(lp273
F44.0
aF3.33
aVrain
p274
asI1346770800
(lp275
F83.8
aF1.66
aVrain
p276
asI1338562800
(lp277
F71.25999999999999
aF2.25
aVrain
p278
asI1354892400
(lp279
F51.205
aF6.72
aVrain
p280
asI1335106800
(lp281
F55.36
aF3.39
aVrain
p282
asI1345042800
(lp283
F86.58
aF7.73
aVrain
p284
asI1359990000
(lp285
F47.965
aF6.23
aVrain
p286
asI1352214000
(lp287
F61.83
aF2.36
aVrain
p288
asI1340463600
(lp289
F72.485
aF5.05
aVrain
p290
asI1360335600
(lp291
F40.9
aF8.96
aVrain
p292
asI1349535600
(lp293
F65.96000000000001
aF5.28
aVrain
p294
asI1335884400
(lp295
F65.52000000000001
aF7.55
aVrain
p296
asI1357657200
(lp297
F43.975
aI4
aVrain
p298
asI1346857200
(lp299
F82.255
aF1.37
aVrain
p300
asI1342364400
(lp301
F85.03999999999999
aF13.45
aVrain
p302
asI1354978800
(lp303
F44.765
aF8.37
aVrain
p304
asI1337785200
(lp305
F71.72999999999999
aF5.67
aVrain
p306
asI1352300400
(lp307
F59.36
aF1.72
aVrain
p308
asI1344265200
(lp309
F83.7
aF3.13
aVrain
p310
asI1352646000
(lp311
F59.955
aF4.21
aVrain
p312
asI1349622000
(lp313
F68.325
aF6.36
aVrain
p314
asI1339686000
(lp315
F67.86500000000001
aF4.2
aVrain
p316
asI1357743600
(lp317
F42.5
aF4.87
aVrain
p318
asI1346943600
(lp319
F80.9
aF1.58
aVrain
p320
asI1346166000
(lp321
F84.57499999999999
aF7.31
aVrain
p322
asI1355065200
(lp323
F42.565
aF5.05
aVrain
p324
asI1341586800
(lp325
F71.785
aF2.85
aVrain
p326
asI1352386800
(lp327
F62.93
aF7.3
aVrain
p328
asI1337007600
(lp329
F65.595
aF5.52
aVrain
p330
asI1360508400
(lp331
F42.385000000000005
aF7.51
aVrain
p332
asI1349708400
(lp333
F66.91
aF6.21
aVrain
p334
asI1343487600
(lp335
F86.18
aF7.69
aVrain
p336
asI1357830000
(lp337
F42.03
aF6.27
aVrain
p338
asI1338908400
(lp339
F67.19
aF4.47
aVrain
p340
asI1355151600
(lp341
F43.675
aF2.56
aVrain
p342
asI1334329200
(lp343
I51
aF7.46
aVrain
p344
asI1352473200
(lp345
F61.505
aF7.31
aVrain
p346
asI1340809200
(lp347
F71.53
aF4.13
aVrain
p348
asI1360594800
(lp349
F39.114999999999995
aF5.03
aVrain
p350
asI1349794800
(lp351
F66.065
aF5.35
aVrain
p352
asI1336230000
(lp353
F69.605
aF3.7
aVrain
p354
asI1346252400
(lp355
F86.88
aF4.54
aVrain
p356
asI1357916400
(lp357
F41.07
aF4.13
aVrain
p358
asI1342710000
(lp359
I69
aF6.42
aVrain
p360
asI1354633200
(lp361
F48.465
aF1.56
aVrain
p362
asI1355238000
(lp363
F45.42
aF4.67
aVrain
p364
asI1338130800
(lp365
F70.03999999999999
aI7
aVrain
p366
asI1349881200
(lp367
F69.87
aF3.62
aVrain
p368
asI1354114800
(lp369
F50.445
aF2.42
aVrain
p370
asI1344610800
(lp371
F84.83500000000001
aF7.31
aVrain
p372
asI1360681200
(lp373
F43.315
aF8.59
aVrain
p374
asI1340031600
(lp375
F75.93
aF7.58
aVrain
p376
asI1353596400
(lp377
F51.39
aF3.89
aVrain
p378
asI1358002800
(lp379
F44.43
aF0.85
aVrain
p380
asI1335452400
(lp381
F62.3
aF4.1
aVrain
p382
asI1355324400
(lp383
F45.260000000000005
aF7.07
aVrain
p384
asI1341932400
(lp385
F79.89
aF9.32
aVrain
p386
asI1337353200
(lp387
F67.215
aF4.7
aVrain
p388
asI1349103600
(lp389
F74.64500000000001
aF4.71
aVrain
p390
asI1343833200
(lp391
F86.755
aF6.81
aVrain
p392
asI1339167600
(lp393
F67.92
aF1.49
aVrain
p394
asI1358089200
(lp395
F41.56
aF9.82
aVrain
p396
asI1339254000
(lp397
F72.725
aF1.22
aVrain
p398
asI1347289200
(lp399
F84.69
aF4.07
aVrain
p400
asI1360422000
(lp401
F42.15
aF1.97
aVrain
p402
asI1334674800
(lp403
F59.57
aF4.83
aVrain
p404
asI1354546800
(lp405
F51.14
aF4.68
aVrain
p406
asI1341154800
(lp407
F73.53
aF3.9
aVrain
p408
asI1360854000
(lp409
F42.3
aF5.04
aVrain
p410
asI1336575600
(lp411
F65.25999999999999
aF3.01
aVrain
p412
asI1350054000
(lp413
F69.565
aF7.71
aVrain
p414
asI1349967600
(lp415
F68.925
aF5.7
aVrain
p416
asI1343055600
(lp417
F81.00999999999999
aF1.1
aVrain
p418
asI1347375600
(lp419
F82.67
aF1.39
aVrain
p420
asI1338476400
(lp421
F72.13
aF0.6
aVrain
p422
asI1344956400
(lp423
F84.79499999999999
aF5.56
aVrain
p424
asI1352818800
(lp425
F57.8
aF5.1
aVrain
p426
asI1348930800
(lp427
F78.405
aF11.08
aVrain
p428
asI1340377200
(lp429
F72.4
aF4.93
aVrain
p430
asI1350140400
(lp431
F63.94
aF4.09
aVrain
p432
asI1347202800
(lp433
F84.67
aF7.42
aVrain
p434
asI1335798000
(lp435
F68.55
aF6.39
aVrain
p436
asI1347462000
(lp437
F84.00999999999999
aF3.29
aVrain
p438
asI1335020400
(lp439
F52.32
aF3.81
aVrain
p440
asI1342278000
(lp441
F85.425
aF14.18
aVrain
p442
asI1355583600
(lp443
F54.01
aF6.95
aVrain
p444
asI1337698800
(lp445
F65.03
aF0.93
aVrain
p446
asI1352905200
(lp447
F53.11
aF7.64
aVrain
p448
asI1356274800
(lp449
F41.985
aF6.88
aVrain
p450
asI1344178800
(lp451
F80.86500000000001
aF3.53
aVrain
p452
asI1350226800
(lp453
F70.15
aF2.43
aVrain
p454
asI1346338800
(lp455
F86.145
aF7.64
aVrain
p456
asI1339599600
(lp457
F66.50999999999999
aF6.36
aVrain
p458
asI1358348400
(lp459
F39.44
aF5.41
aVrain
p460
asI1347548400
(lp461
F84.21000000000001
aF7.4
aVrain
p462
asI1358953200
(lp463
F42.575
aF0.95
aVrain
p464
asI1346079600
(lp465
F86.305
aF8.36
aVrain
p466
asI1355670000
(lp467
F45.625
aF5.85
aVrain
p468
asI1344870000
(lp469
F83.32
aF7.1
aVrain
p470
asI1352559600
(lp471
F55.974999999999994
aF4.49
aVrain
p472
asI1352991600
(lp473
F55.515
aF1.42
aVrain
p474
asI1336921200
(lp475
F66.9
aF5.3
aVrain
p476
asI1350313200
(lp477
F66.07
aF4.52
aVrain
p478
asI1343401200
(lp479
F86.245
aF5.41
aVrain
p480
asI1353510000
(lp481
F51.765
aF2.01
aVrain
p482
asI1347634800
(lp483
F83.09
aF5.99
aVrain
p484
asI1338822000
(lp485
F71.06
aF8.41
aVrain
p486
asI1355756400
(lp487
F52.54
aF5.01
aVrain
p488
asI1334242800
(lp489
F63.465
aF0.27
aVrain
p490
asI1353078000
(lp491
F57.155
aF4.85
aVrain
p492
asI1340722800
(lp493
F68.28999999999999
aF3.45
aVrain
p494
asI1350399600
(lp495
F65.575
aF3.27
aVrain
p496
asI1336143600
(lp497
F69.49
aF3.06
aVrain
p498
asI1358521200
(lp499
F40.39
aF2.63
aVrain
p500
asI1347721200
(lp501
F83.45
aF2.58
aVrain
p502
asI1355497200
(lp503
F45.14
aF2.82
aVrain
p504
asI1335970800
(lp505
F63.964999999999996
aF3.26
aVrain
p506
asI1355842800
(lp507
F43.239999999999995
aF10.94
aVrain
p508
asI1338044400
(lp509
F72.855
aF7.15
aVrain
p510
asI1353164400
(lp511
F56.06
aF10.15
aVrain
p512
asI1344524400
(lp513
F80.61
aF6.35
aVrain
p514
asI1350486000
(lp515
F63.11
aF4.54
aVrain
p516
asI1339945200
(lp517
F76.435
aF4.25
aVrain
p518
asI1358607600
(lp519
F43.525
aF8.56
aVrain
p520
asI1347807600
(lp521
F82.41499999999999
aF10.56
aVrain
p522
asI1335366000
(lp523
F65.225
aF10.07
aVrain
p524
asI1355929200
(lp525
F43.849999999999994
aF4.65
aVrain
p526
asI1341846000
(lp527
F80.315
aF5.77
aVrain
p528
asI1353250800
(lp529
F47.04
aF4.79
aVrain
p530
asI1348066800
(lp531
F81.89
aF4.11
aVrain
p532
asI1337266800
(lp533
F65.97
aF7.49
aVrain
p534
asI1349017200
(lp535
F81.24
aF10.74
aVrain
p536
asI1350572400
(lp537
F61.2
aF5.38
aVrain
p538
asI1343746800
(lp539
F84.675
aF6.46
aVrain
p540
asI1357398000
(lp541
F39.675
aF3.85
aVrain
p542
asI1358694000
(lp543
F42.96
aF0.26
aVrain
p544
asI1347894000
(lp545
F81.57
aF9.58
aVrain
p546
asI1337094000
(lp547
F70.97
aF2.23
aVrain
p548
asI1356015600
(lp549
F42.64
aF2.6
aVrain
p550
asI1334588400
(lp551
I59
aF0.96
aVrain
p552
asI1347980400
(lp553
F79.97
aF8.51
aVrain
p554
asI1353337200
(lp555
F53.17
aF4.89
aVrain
p556
asI1341068400
(lp557
F71.825
aF1.36
aVrain
p558
asI1356361200
(lp559
F40.739999999999995
aF1.5
aVrain
p560
asI1350658800
(lp561
F63.33
aF2.55
aVrain
p562
asI1336489200
(lp563
F66.045
aF1.87
aVrain
p564
asI1358780400
(lp565
F43.545
aF4.98
aVrain
p566
asI1342969200
(lp567
F75.955
aF2.69
aVrain
p568
asI1356102000
(lp569
F44.495
aF5.75
aVrain
p570
asI1338390000
(lp571
F68.28
aF4.37
aVrain
p572
asI1356793200
(lp573
F45.035
aF3.65
aVrain
p574
asI1353423600
(lp575
F53.03
aF7.45
aVrain
p576
asI1342623600
(lp577
F82.785
aF4.3
aVrain
p578
asI1355410800
(lp579
F44.795
aF1.67
aVrain
p580
asI1345388400
(lp581
F83.83500000000001
aF4.21
aVrain
p582
asI1340290800
(lp583
F68.96000000000001
aF2.36
aVrain
p584
asI1358866800
(lp585
F43.19
aF5.63
aVrain
p586
asI1335711600
(lp587
F69.275
aF5.49
aVrain
p588
asI1356188400
(lp589
F45.114999999999995
aF4.51
aVrain
p590
asI1342191600
(lp591
F81.89
aF11.23
aVrain
p592
asI1359126000
(lp593
F40.36
aF3.61
aVrain
p594
asI1337612400
(lp595
F58.81
aF8.06
aVrain
p596
asI1352732400
(lp597
F59.065
aF2.88
aVrain
p598
asI1344092400
(lp599
F85.85
aF7.06
aVrain
p600
asI1341500400
(lp601
F77.655
aF2.03
aVrain
p602
asI1339513200
(lp603
F64.03999999999999
aF6.73
aVrain
p604
asI1350918000
(lp605
F67.67
aF6.56
aVrain
p606
asI1351522800
(lp607
F58.83
aF3.2
aVrain
p608
asI1334934000
(lp609
F53.96
aF6.9
aVrain
p610
asI1345474800
(lp611
F85.53
aF7.51
aVrain
p612
asI1351695600
(lp613
F60.31
aF2.31
aVrain
p614
asI1341414000
(lp615
F79.775
aF2.88
aVrain
p616
asI1360076400
(lp617
F41.5
aF6.86
aVrain
p618
asI1336834800
(lp619
F61.815
aF1.1
aVrain
p620
as.